; ModuleID = '/mnt/icgridio2/safe/giesen/HLS_tuner/1/TestApps/Rosetta/BNN/Sources/accel/AccelSchedule.cpp'
source_filename = "/mnt/icgridio2/safe/giesen/HLS_tuner/1/TestApps/Rosetta/BNN/Sources/accel/AccelSchedule.cpp"
target datalayout = "e-m:e-p:32:32-i64:64-v128:64:128-a:0:32-n32-S64"
target triple = "armv7-none--eabi"

%"class.std::ios_base::Init" = type { i8 }
%class.Timer = type { i8 }
%class.ap_int = type { %class.ap_private }
%class.ap_private = type { i64 }
%struct._reent = type { i32, %struct.__sFILE*, %struct.__sFILE*, %struct.__sFILE*, i32, [25 x i8], i32, i8*, i32, void (%struct._reent*)*, %struct._Bigint*, i32, %struct._Bigint*, %struct._Bigint**, i32, i8*, %union.anon.7, %struct._atexit*, %struct._atexit, void (i32)**, %struct._glue, [3 x %struct.__sFILE] }
%struct.__sFILE = type { i8*, i32, i32, i16, i16, %struct.__sbuf, i32, i8*, i32 (%struct._reent*, i8*, i8*, i32)*, i32 (%struct._reent*, i8*, i8*, i32)*, i32 (%struct._reent*, i8*, i32, i32)*, i32 (%struct._reent*, i8*)*, %struct.__sbuf, i8*, i32, [3 x i8], [1 x i8], %struct.__sbuf, i32, i32, %struct._reent*, i32, %struct._mbstate_t, i32 }
%struct.__sbuf = type { i8*, i32 }
%struct._mbstate_t = type { i32, %union.anon }
%union.anon = type { i32 }
%struct._Bigint = type { %struct._Bigint*, i32, i32, i32, i32, [1 x i32] }
%union.anon.7 = type { %struct.anon, [32 x i8] }
%struct.anon = type { i32, i8*, [26 x i8], %struct.__tm, i32, i64, %struct._rand48, %struct._mbstate_t, %struct._mbstate_t, %struct._mbstate_t, [8 x i8], [24 x i8], i32, %struct._mbstate_t, %struct._mbstate_t, %struct._mbstate_t, %struct._mbstate_t, %struct._mbstate_t, i32 }
%struct.__tm = type { i32, i32, i32, i32, i32, i32, i32, i32, i32 }
%struct._rand48 = type { [3 x i16], [3 x i16], i16 }
%struct._atexit = type { %struct._atexit*, i32, [32 x void ()*], %struct._on_exit_args }
%struct._on_exit_args = type { [32 x i8*], [32 x i8*], i32, i32 }
%struct._glue = type { %struct._glue*, i32, %struct.__sFILE* }
%class.ap_uint.1 = type { %class.ap_private.2 }
%class.ap_private.2 = type { i8 }
%class.ap_uint.3 = type { %class.ap_private.4 }
%class.ap_private.4 = type { i8 }
%"class.std::vector" = type { %"struct.std::_Vector_base" }
%"struct.std::_Vector_base" = type { %"struct.std::_Vector_base<AccelInfo, std::allocator<AccelInfo> >::_Vector_impl" }
%"struct.std::_Vector_base<AccelInfo, std::allocator<AccelInfo> >::_Vector_impl" = type { %struct.AccelInfo*, %struct.AccelInfo*, %struct.AccelInfo* }
%struct.AccelInfo = type <{ %class.ap_int*, %class.ap_int*, i32, i32, %class.ap_uint, %class.ap_uint.1, %class.ap_uint.1, i8 }>
%class.ap_uint = type { %class.ap_private.0 }
%class.ap_private.0 = type { i8 }
%struct.ap_range_ref = type { %class.ap_private.0*, i32, i32 }
%struct.ap_range_ref.5 = type { %class.ap_private.2*, i32, i32 }
%struct.ap_bit_ref = type { %class.ap_private.0*, i32 }
%class.ap_private.6 = type { i64 }
%class.ap_private.14 = type { i32 }
%struct.ap_range_ref.11 = type { %class.ap_private*, i32, i32 }
%class.ap_uint.9 = type { %class.ap_private.10 }
%class.ap_private.10 = type { i16 }
%class.ap_private.13 = type { i64 }
%struct.ap_bit_ref.12 = type { %class.ap_private.2*, i32 }
%class.ap_private.15 = type { i32 }
%"class.std::allocator" = type { i8 }
%"class.__gnu_cxx::new_allocator" = type { i8 }
%struct.ap_bit_ref.17 = type { %class.ap_private.13*, i32 }
%struct.ap_bit_ref.16 = type { %class.ap_private*, i32 }

$_ZN7ap_uintILi2EEC2Ej = comdat any

$_ZN7ap_uintILi3EEC2Ei = comdat any

$_ZN10ap_privateILi3ELb0ELb1EEclEii = comdat any

$_ZN12ap_range_refILi3ELb0EEaSILi2ELb0EEERS0_RKS_IXT_EXT0_EE = comdat any

$_ZNK10ap_privateILi2ELb0ELb1EEclEii = comdat any

$_ZeqILi1ELb0EEbRK10ap_privateIXT_EXT0_EXleT_Li64EEEi = comdat any

$_ZeqILi2ELb0EEbRK10ap_privateIXT_EXT0_EXleT_Li64EEEi = comdat any

$_ZNSt6vectorI9AccelInfoSaIS0_EE6resizeEj = comdat any

$_ZN10ap_privateILi3ELb0ELb1EEixEi = comdat any

$_ZN10ap_bit_refILi3ELb0EEaSEy = comdat any

$_ZNSt6vectorI9AccelInfoSaIS0_EEixEj = comdat any

$_ZN7ap_uintILi3EEaSERKS0_ = comdat any

$_ZN7ap_uintILi2EEaSERKS0_ = comdat any

$_ZplILi1ELb0EEN10ap_privateIXT_EXT0_EXleT_Li64EEE5RTypeIXLi32EEXLb1EEE4plusERKS1_i = comdat any

$_ZN7ap_uintILi2EEC2ILi33ELb1EEERK10ap_privateIXT_EXT0_EXleT_Li64EEE = comdat any

$_ZN7ap_uintILi2EED2Ev = comdat any

$_ZN10ap_privateILi33ELb1ELb1EED2Ev = comdat any

$_ZneILi2ELb0EEbRK10ap_privateIXT_EXT0_EXleT_Li64EEEi = comdat any

$_ZN7ap_uintILi3EED2Ev = comdat any

$_ZNKSt6vectorI9AccelInfoSaIS0_EE4sizeEv = comdat any

$_ZN6ap_intILi64EEaSERKS0_ = comdat any

$_ZN7ap_uintILi16EEC2Ej = comdat any

$_ZN7ap_uintILi3EEC2ERKS0_ = comdat any

$_ZN7ap_uintILi1EEC2ERKS0_ = comdat any

$_ZN7ap_uintILi2EEC2ERKS0_ = comdat any

$_ZN7ap_uintILi1EED2Ev = comdat any

$_ZN7ap_uintILi16EED2Ev = comdat any

$_ZNK10ap_privateILi64ELb1ELb1EErsEj = comdat any

$_ZN6ap_intILi64EEC2ILi64ELb1EEERK10ap_privateIXT_EXT0_EXleT_Li64EEE = comdat any

$_ZN10ap_privateILi64ELb1ELb1EED2Ev = comdat any

$_ZN6ap_intILi64EEC2Ev = comdat any

$_ZN6ap_intILi64EED2Ev = comdat any

$_ZN10ap_privateILi64ELb1ELb1EEclEii = comdat any

$_ZN12ap_range_refILi64ELb1EEaSERKS0_ = comdat any

$_ZN6ap_intILi64EEC2Ei = comdat any

$_ZN10ap_privateILi2ELb0ELb1EE12check_canaryEv = comdat any

$__clang_call_terminate = comdat any

$_ZN10ap_privateILi3ELb0ELb1EE12check_canaryEv = comdat any

$_ZN10ap_privateILi1ELb0ELb1EED2Ev = comdat any

$_ZN10ap_privateILi1ELb0ELb1EE12check_canaryEv = comdat any

$_ZN10ap_privateILi16ELb0ELb1EED2Ev = comdat any

$_ZN10ap_privateILi16ELb0ELb1EE12check_canaryEv = comdat any

$_ZN10ap_privateILi64ELb1ELb1EE12check_canaryEv = comdat any

$_ZN10ap_privateILi64ELb1ELb1EEC2Ev = comdat any

$_ZN10ap_privateILi64ELb1ELb1EE5clearEv = comdat any

$_ZN10ap_privateILi64ELb1ELb1EE10set_canaryEv = comdat any

$_ZN10ap_privateILi64ELb1ELb1EE15clearUnusedBitsEv = comdat any

$_ZN10ap_privateILi2ELb0ELb1EEC2Ej = comdat any

$_ZN10ap_privateILi2ELb0ELb1EE10set_canaryEv = comdat any

$_ZN10ap_privateILi2ELb0ELb1EE15clearUnusedBitsEv = comdat any

$_ZN10ap_privateILi3ELb0ELb1EE10set_canaryEv = comdat any

$_ZN10ap_privateILi3ELb0ELb1EE15clearUnusedBitsEv = comdat any

$_ZN12ap_range_refILi3ELb0EEC2EP10ap_privateILi3ELb0ELb1EEii = comdat any

$_ZN12ap_range_refILi2ELb0EEC2EP10ap_privateILi2ELb0ELb1EEii = comdat any

$_ZN10ap_privateILi3ELb0ELb1EEC2ILi2ELb0EEERK12ap_range_refIXT_EXT0_EE = comdat any

$_ZN12ap_range_refILi3ELb0EEaSILi3ELb0EEERS0_RK10ap_privateIXT_EXT0_EXleT_Li64EEE = comdat any

$_ZN10ap_privateILi3ELb0ELb1EED2Ev = comdat any

$_ZN10ap_privateILi3ELb0ELb1EEaSILi2ELb0EEERS0_RKS_IXT_EXT0_EXleT_Li64EEE = comdat any

$_ZNK12ap_range_refILi2ELb0EE3getEv = comdat any

$_ZN10ap_privateILi2ELb0ELb1EED2Ev = comdat any

$_ZNK10ap_privateILi2ELb0ELb1EE7get_VALEv = comdat any

$_ZN10ap_privateILi2ELb0ELb1EEC2Ei = comdat any

$_ZN10ap_privateILi2ELb0ELb1EEixEi = comdat any

$_ZNK10ap_bit_refILi2ELb0EEcvbEv = comdat any

$_ZN10ap_privateILi2ELb0ELb1EE3setEj = comdat any

$_ZN10ap_privateILi2ELb0ELb1EEaSERKS0_ = comdat any

$_ZrSILi2ELb0EER10ap_privateIXT_EXT0_EXleT_Li64EEES2_i = comdat any

$_ZN10ap_privateILi2ELb0ELb1EEaNEy = comdat any

$_ZN10ap_bit_refILi2ELb0EEC2ER10ap_privateILi2ELb0ELb1EEi = comdat any

$_ZNK10ap_privateILi2ELb0ELb1EE7get_bitEi = comdat any

$_ZNK10ap_privateILi2ELb0ELb1EErsEi = comdat any

$_ZNK10ap_privateILi2ELb0ELb1EE10isNegativeEv = comdat any

$_ZNK10ap_privateILi2ELb0ELb1EElsEi = comdat any

$_ZNK10ap_privateILi2ELb0ELb1EE4lshrEj = comdat any

$_ZNK10ap_privateILi2ELb0ELb1EE3shlEj = comdat any

$_ZN10ap_privateILi2ELb0ELb1EEC2Ey = comdat any

$_ZNK10ap_bit_refILi3ELb0EEcvbEv = comdat any

$_ZN10ap_privateILi3ELb0ELb1EE3setEj = comdat any

$_ZN10ap_privateILi3ELb0ELb1EE5clearEj = comdat any

$_ZN10ap_privateILi3ELb0ELb1EEaSILi64ELb0EEERS0_RKS_IXT_EXT0_EXleT_Li64EEE = comdat any

$_ZanILi3ELb0EEN10ap_privateILi64ELb0ELb1EE5RTypeIXT_EXT0_EE5logicEyRKS0_IXT_EXT0_EXleT_Li64EEE = comdat any

$_ZNK10ap_privateILi3ELb0ELb1EElsEi = comdat any

$_ZN10ap_privateILi64ELb0ELb1EED2Ev = comdat any

$_ZN10ap_privateILi3ELb0ELb1EEaNEy = comdat any

$_ZN10ap_privateILi3ELb0ELb1EEoRILi3ELb0EEERS0_RKS_IXT_EXT0_EXleT_Li64EEE = comdat any

$_ZNK10ap_privateILi3ELb0ELb1EE7get_bitEi = comdat any

$_ZNK10ap_privateILi64ELb0ELb1EE7get_VALEv = comdat any

$_ZN10ap_privateILi64ELb0ELb1EEC2Ey = comdat any

$_ZNK10ap_privateILi64ELb0ELb1EEanILi3ELb0EEENS0_5RTypeIXT_EXT0_EE5logicERKS_IXT_EXT0_EXleT_Li64EEE = comdat any

$_ZN10ap_privateILi64ELb0ELb1EE10set_canaryEv = comdat any

$_ZN10ap_privateILi64ELb0ELb1EE15clearUnusedBitsEv = comdat any

$_ZN10ap_privateILi64ELb0ELb1EE12check_canaryEv = comdat any

$_ZNK10ap_privateILi3ELb0ELb1EE7get_VALEv = comdat any

$_ZN10ap_privateILi3ELb0ELb1EEC2Ei = comdat any

$_ZNK10ap_privateILi3ELb0ELb1EErsEi = comdat any

$_ZNK10ap_privateILi3ELb0ELb1EE3shlEj = comdat any

$_ZNK10ap_privateILi3ELb0ELb1EE10isNegativeEv = comdat any

$_ZNK10ap_privateILi3ELb0ELb1EE4lshrEj = comdat any

$_ZN10ap_privateILi3ELb0ELb1EEC2Ey = comdat any

$_ZNK10ap_privateILi1ELb0ELb1EEeqILi32ELb1EEEbRKS_IXT_EXT0_EXleT_Li64EEE = comdat any

$_ZN10ap_privateILi32ELb1ELb1EEC2Ei = comdat any

$_ZN10ap_privateILi32ELb1ELb1EED2Ev = comdat any

$_ZN10ap_privateILi32ELb0ELb1EEC2ILi1ELb0ELb1EEERKS_IXT_EXT0_EXT1_EE = comdat any

$_ZN10ap_privateILi32ELb0ELb1EEC2ILi32ELb1ELb1EEERKS_IXT_EXT0_EXT1_EE = comdat any

$_ZN10ap_privateILi32ELb0ELb1EE7get_VALEv = comdat any

$_ZN10ap_privateILi32ELb0ELb1EED2Ev = comdat any

$_ZNK10ap_privateILi1ELb0ELb1EE7get_VALEv = comdat any

$_ZN10ap_privateILi32ELb0ELb1EE10set_canaryEv = comdat any

$_ZN10ap_privateILi32ELb0ELb1EE15clearUnusedBitsEv = comdat any

$_ZN10ap_privateILi32ELb0ELb1EE12check_canaryEv = comdat any

$_ZNK10ap_privateILi32ELb1ELb1EE7get_VALEv = comdat any

$_ZN10ap_privateILi32ELb1ELb1EE10set_canaryEv = comdat any

$_ZN10ap_privateILi32ELb1ELb1EE15clearUnusedBitsEv = comdat any

$_ZN10ap_privateILi32ELb1ELb1EE12check_canaryEv = comdat any

$_ZNK10ap_privateILi2ELb0ELb1EEeqILi32ELb1EEEbRKS_IXT_EXT0_EXleT_Li64EEE = comdat any

$_ZN10ap_privateILi32ELb0ELb1EEC2ILi2ELb0ELb1EEERKS_IXT_EXT0_EXT1_EE = comdat any

$_ZNSt6vectorI9AccelInfoSaIS0_EE17_M_default_appendEj = comdat any

$_ZNSt6vectorI9AccelInfoSaIS0_EE15_M_erase_at_endEPS0_ = comdat any

$_ZSt27__uninitialized_default_n_aIP9AccelInfojS0_ET_S2_T0_RSaIT1_E = comdat any

$_ZNSt12_Vector_baseI9AccelInfoSaIS0_EE19_M_get_Tp_allocatorEv = comdat any

$_ZNKSt6vectorI9AccelInfoSaIS0_EE12_M_check_lenEjPKc = comdat any

$_ZNSt12_Vector_baseI9AccelInfoSaIS0_EE11_M_allocateEj = comdat any

$_ZSt34__uninitialized_move_if_noexcept_aIP9AccelInfoS1_SaIS0_EET0_T_S4_S3_RT1_ = comdat any

$_ZSt8_DestroyIP9AccelInfoS0_EvT_S2_RSaIT0_E = comdat any

$_ZNSt12_Vector_baseI9AccelInfoSaIS0_EE13_M_deallocateEPS0_j = comdat any

$_ZSt25__uninitialized_default_nIP9AccelInfojET_S2_T0_ = comdat any

$_ZNSt27__uninitialized_default_n_1ILb0EE18__uninit_default_nIP9AccelInfojEET_S4_T0_ = comdat any

$_ZSt10_ConstructI9AccelInfoJEEvPT_DpOT0_ = comdat any

$_ZSt11__addressofI9AccelInfoEPT_RS1_ = comdat any

$_ZSt8_DestroyIP9AccelInfoEvT_S2_ = comdat any

$_ZN9AccelInfoC2Ev = comdat any

$_ZN7ap_uintILi3EEC2Ev = comdat any

$_ZN7ap_uintILi2EEC2Ev = comdat any

$_ZN10ap_privateILi3ELb0ELb1EEC2Ev = comdat any

$_ZN10ap_privateILi3ELb0ELb1EE5clearEv = comdat any

$_ZN10ap_privateILi2ELb0ELb1EEC2Ev = comdat any

$_ZN10ap_privateILi2ELb0ELb1EE5clearEv = comdat any

$_ZNSt12_Destroy_auxILb0EE9__destroyIP9AccelInfoEEvT_S4_ = comdat any

$_ZSt8_DestroyI9AccelInfoEvPT_ = comdat any

$_ZN9AccelInfoD2Ev = comdat any

$_ZNKSt6vectorI9AccelInfoSaIS0_EE8max_sizeEv = comdat any

$_ZSt3maxIjERKT_S2_S2_ = comdat any

$_ZNSt16allocator_traitsISaI9AccelInfoEE8max_sizeERKS1_ = comdat any

$_ZNKSt12_Vector_baseI9AccelInfoSaIS0_EE19_M_get_Tp_allocatorEv = comdat any

$_ZNK9__gnu_cxx13new_allocatorI9AccelInfoE8max_sizeEv = comdat any

$_ZNSt16allocator_traitsISaI9AccelInfoEE8allocateERS1_j = comdat any

$_ZN9__gnu_cxx13new_allocatorI9AccelInfoE8allocateEjPKv = comdat any

$_ZSt22__uninitialized_copy_aIPK9AccelInfoPS0_S0_ET0_T_S5_S4_RSaIT1_E = comdat any

$_ZSt32__make_move_if_noexcept_iteratorI9AccelInfoPKS0_ET0_PT_ = comdat any

$_ZSt18uninitialized_copyIPK9AccelInfoPS0_ET0_T_S5_S4_ = comdat any

$_ZNSt20__uninitialized_copyILb0EE13__uninit_copyIPK9AccelInfoPS2_EET0_T_S7_S6_ = comdat any

$_ZSt10_ConstructI9AccelInfoJRKS0_EEvPT_DpOT0_ = comdat any

$_ZSt7forwardIRK9AccelInfoEOT_RNSt16remove_referenceIS3_E4typeE = comdat any

$_ZN9AccelInfoC2ERKS_ = comdat any

$_ZNSt16allocator_traitsISaI9AccelInfoEE10deallocateERS1_PS0_j = comdat any

$_ZN9__gnu_cxx13new_allocatorI9AccelInfoE10deallocateEPS1_j = comdat any

$_ZN10ap_bit_refILi3ELb0EEC2ER10ap_privateILi3ELb0ELb1EEi = comdat any

$_ZN10ap_privateILi3ELb0ELb1EEaSERKS0_ = comdat any

$_ZNK10ap_privateILi1ELb0ELb1EEplILi32ELb1EEENS0_5RTypeIXT_EXT0_EE4plusERKS_IXT_EXT0_EXleT_Li64EEE = comdat any

$_ZN10ap_privateILi33ELb1ELb1EEC2Ey = comdat any

$_ZN10ap_privateILi33ELb1ELb1EE10set_canaryEv = comdat any

$_ZN10ap_privateILi33ELb1ELb1EE15clearUnusedBitsEv = comdat any

$_ZN10ap_privateILi33ELb1ELb1EE12check_canaryEv = comdat any

$_ZN10ap_privateILi2ELb0ELb1EEC2ILi33ELb1ELb1EEERKS_IXT_EXT0_EXT1_EE = comdat any

$_ZNK10ap_privateILi33ELb1ELb1EE7get_VALEv = comdat any

$_ZNK10ap_privateILi2ELb0ELb1EEneILi32ELb1EEEbRKS_IXT_EXT0_EXleT_Li64EEE = comdat any

$_ZN10ap_privateILi64ELb1ELb1EEaSERKS0_ = comdat any

$_ZNK10ap_privateILi64ELb1ELb1EE7get_VALEv = comdat any

$_ZN10ap_privateILi16ELb0ELb1EEC2Ej = comdat any

$_ZN10ap_privateILi16ELb0ELb1EE10set_canaryEv = comdat any

$_ZN10ap_privateILi16ELb0ELb1EE15clearUnusedBitsEv = comdat any

$_ZNK10ap_privateILi64ELb1ELb1EE10isNegativeEv = comdat any

$_ZN10ap_privateILi64ELb1ELb1EEC2Ei = comdat any

$_ZNK10ap_privateILi64ELb1ELb1EE4ashrEj = comdat any

$_ZN10ap_privateILi64ELb1ELb1EEC2Ex = comdat any

$_ZN12ap_range_refILi64ELb1EEC2EP10ap_privateILi64ELb1ELb1EEii = comdat any

$_ZN10ap_privateILi64ELb0ELb1EEC2ILi64ELb1EEERK12ap_range_refIXT_EXT0_EE = comdat any

$_ZN12ap_range_refILi64ELb1EEaSILi64ELb0EEERS0_RK10ap_privateIXT_EXT0_EXleT_Li64EEE = comdat any

$_ZN10ap_privateILi64ELb0ELb1EEaSERKS0_ = comdat any

$_ZNK12ap_range_refILi64ELb1EE3getEv = comdat any

$_ZN10ap_privateILi64ELb0ELb1EEC2Ei = comdat any

$_ZN10ap_privateILi64ELb1ELb1EEixEi = comdat any

$_ZNK10ap_bit_refILi64ELb1EEcvbEv = comdat any

$_ZN10ap_privateILi64ELb0ELb1EE3setEj = comdat any

$_ZN10ap_privateILi64ELb0ELb1EEaSILi64ELb1EEERS0_RKS_IXT_EXT0_EXleT_Li64EEE = comdat any

$_ZrSILi64ELb0EER10ap_privateIXT_EXT0_EXleT_Li64EEES2_i = comdat any

$_ZN10ap_privateILi64ELb0ELb1EEaNEy = comdat any

$_ZN10ap_bit_refILi64ELb1EEC2ER10ap_privateILi64ELb1ELb1EEi = comdat any

$_ZNK10ap_privateILi64ELb1ELb1EE7get_bitEi = comdat any

$_ZNK10ap_privateILi64ELb0ELb1EErsEi = comdat any

$_ZNK10ap_privateILi64ELb0ELb1EE10isNegativeEv = comdat any

$_ZNK10ap_privateILi64ELb0ELb1EElsEi = comdat any

$_ZNK10ap_privateILi64ELb0ELb1EE4lshrEj = comdat any

$_ZNK10ap_privateILi64ELb0ELb1EE3shlEj = comdat any

$_ZN10ap_privateILi64ELb0ELb1EEixEi = comdat any

$_ZNK10ap_bit_refILi64ELb0EEcvbEv = comdat any

$_ZN10ap_privateILi64ELb1ELb1EE3setEj = comdat any

$_ZN10ap_privateILi64ELb1ELb1EE5clearEj = comdat any

$_ZanILi64ELb0EEN10ap_privateILi64ELb0ELb1EE5RTypeIXT_EXT0_EE5logicEyRKS0_IXT_EXT0_EXleT_Li64EEE = comdat any

$_ZN10ap_privateILi64ELb1ELb1EEaNEy = comdat any

$_ZN10ap_privateILi64ELb1ELb1EEoRILi64ELb0EEERS0_RKS_IXT_EXT0_EXleT_Li64EEE = comdat any

$_ZN10ap_bit_refILi64ELb0EEC2ER10ap_privateILi64ELb0ELb1EEi = comdat any

$_ZNK10ap_privateILi64ELb0ELb1EE7get_bitEi = comdat any

$_ZNK10ap_privateILi64ELb0ELb1EEanILi64ELb0EEENS0_5RTypeIXT_EXT0_EE5logicERKS_IXT_EXT0_EXleT_Li64EEE = comdat any

$_ZZNK12ap_range_refILi2ELb0EE3getEvE4mask = comdat any

$_ZZNK10ap_privateILi2ELb0ELb1EE10isNegativeEvE9sign_mask = comdat any

$_ZZNK10ap_privateILi3ELb0ELb1EE10isNegativeEvE9sign_mask = comdat any

$_ZZNK10ap_privateILi64ELb1ELb1EE10isNegativeEvE9sign_mask = comdat any

$_ZZNK12ap_range_refILi64ELb1EE3getEvE4mask = comdat any

$_ZZNK10ap_privateILi64ELb0ELb1EE10isNegativeEvE9sign_mask = comdat any

@_ZStL8__ioinit = internal global %"class.std::ios_base::Init" zeroinitializer, align 1
@__dso_handle = external global i8
@_ZL6timers = internal global [9 x %class.Timer] zeroinitializer, align 1
@.str = private unnamed_addr constant [7 x i8] c"xl-FC3\00", align 1
@.str.2 = private unnamed_addr constant [7 x i8] c"xl-FC2\00", align 1
@.str.3 = private unnamed_addr constant [7 x i8] c"xl-FC1\00", align 1
@.str.4 = private unnamed_addr constant [9 x i8] c"xl-Conv6\00", align 1
@.str.5 = private unnamed_addr constant [9 x i8] c"xl-Conv5\00", align 1
@.str.6 = private unnamed_addr constant [9 x i8] c"xl-Conv4\00", align 1
@.str.7 = private unnamed_addr constant [9 x i8] c"xl-Conv3\00", align 1
@.str.8 = private unnamed_addr constant [9 x i8] c"xl-Conv2\00", align 1
@.str.9 = private unnamed_addr constant [9 x i8] c"xl-Conv1\00", align 1
@.str.10 = private unnamed_addr constant [92 x i8] c"/mnt/icgridio2/safe/giesen/HLS_tuner/1/TestApps/Rosetta/BNN/Sources/accel/AccelSchedule.cpp\00", align 1
@__PRETTY_FUNCTION__._Z22compute_accel_scheduleP6ap_intILi64EES1_jjj7ap_uintILi2EES2_ILi1EERSt6vectorI9AccelInfoSaIS6_EE = private unnamed_addr constant [139 x i8] c"void compute_accel_schedule(Word *, Word *, unsigned int, unsigned int, unsigned int, const ap_uint<2>, const ap_uint<1>, AccelSchedule &)\00", align 1
@.str.11 = private unnamed_addr constant [11 x i8] c"wt != NULL\00", align 1
@.str.12 = private unnamed_addr constant [11 x i8] c"kh != NULL\00", align 1
@.str.13 = private unnamed_addr constant [20 x i8] c"imgs_per_batch != 0\00", align 1
@_ZZ18run_accel_scheduleP6ap_intILi64EES1_jjj7ap_uintILi1EERSt6vectorI9AccelInfoSaIS5_EEE4wt_i = internal global %class.ap_int* null, align 4
@_ZGVZ18run_accel_scheduleP6ap_intILi64EES1_jjj7ap_uintILi1EERSt6vectorI9AccelInfoSaIS5_EEE4wt_i = internal global i32 0, align 4
@_ZZ18run_accel_scheduleP6ap_intILi64EES1_jjj7ap_uintILi1EERSt6vectorI9AccelInfoSaIS5_EEE4kh_i = internal global %class.ap_int* null, align 4
@_ZGVZ18run_accel_scheduleP6ap_intILi64EES1_jjj7ap_uintILi1EERSt6vectorI9AccelInfoSaIS5_EEE4kh_i = internal global i32 0, align 4
@_impure_ptr = external global %struct._reent*, align 4
@.str.14 = private unnamed_addr constant [45 x i8] c"**** ERROR: Alloc wt_i or kh_i failed in %s\0A\00", align 1
@__PRETTY_FUNCTION__._Z20find_conv_batch_sizejjjj = private unnamed_addr constant [90 x i8] c"unsigned int find_conv_batch_size(unsigned int, unsigned int, unsigned int, unsigned int)\00", align 1
@.str.15 = private unnamed_addr constant [24 x i8] c"n_inputs <= input_bsize\00", align 1
@.str.16 = private unnamed_addr constant [14 x i8] c"wt_bsize != 0\00", align 1
@__PRETTY_FUNCTION__._Z21find_dense_batch_sizejj = private unnamed_addr constant [63 x i8] c"unsigned int find_dense_batch_size(unsigned int, unsigned int)\00", align 1
@.str.17 = private unnamed_addr constant [31 x i8] c"WT_WORDS*WORD_SIZE >= n_inputs\00", align 1
@.str.18 = private unnamed_addr constant [20 x i8] c"bits_per_batch != 0\00", align 1
@__PRETTY_FUNCTION__._Z17load_conv_weightsP6ap_intILi64EES1_jjj = private unnamed_addr constant [81 x i8] c"void load_conv_weights(Word *, Word *, unsigned int, unsigned int, unsigned int)\00", align 1
@.str.19 = private unnamed_addr constant [21 x i8] c"wt_words <= WT_WORDS\00", align 1
@__PRETTY_FUNCTION__._Z18load_dense_weightsP6ap_intILi64EES1_jjj = private unnamed_addr constant [82 x i8] c"void load_dense_weights(Word *, Word *, unsigned int, unsigned int, unsigned int)\00", align 1
@.str.20 = private unnamed_addr constant [22 x i8] c"n_in % WORD_SIZE == 0\00", align 1
@.str.21 = private unnamed_addr constant [69 x i8] c"Warning! Higher bound (%d) and lower bound (%d) cannot be negative.\0A\00", align 1
@.str.22 = private unnamed_addr constant [67 x i8] c"Warning! Higher bound (%d) or lower bound (%d) out of range (%d).\0A\00", align 1
@_ZZNK12ap_range_refILi2ELb0EE3getEvE4mask = linkonce_odr constant i64 3, comdat, align 8
@.str.23 = private unnamed_addr constant [56 x i8] c"Warning! Index of bit vector  (%d) cannot be negative.\0A\00", align 1
@.str.24 = private unnamed_addr constant [54 x i8] c"Warning! Index of bit vector (%d) out of range (%d).\0A\00", align 1
@.str.25 = private unnamed_addr constant [73 x i8] c"/mnt/icgridio2/safe/SDSoC/SDx/2017.1/Vivado_HLS/include/etc/ap_private.h\00", align 1
@__PRETTY_FUNCTION__._ZNK10ap_privateILi2ELb0ELb1EE7get_bitEi = private unnamed_addr constant [93 x i8] c"bool ap_private<2, false, true>::get_bit(int) const [_AP_W = 2, _AP_S = false, _AP_C = true]\00", align 1
@.str.26 = private unnamed_addr constant [55 x i8] c"i >= 0 && \22Attempting to read bit with negative index\22\00", align 1
@.str.27 = private unnamed_addr constant [49 x i8] c"i < _AP_W && \22Attempting to read bit beyond MSB\22\00", align 1
@_ZZNK10ap_privateILi2ELb0ELb1EE10isNegativeEvE9sign_mask = linkonce_odr constant i64 2, comdat, align 8
@__PRETTY_FUNCTION__._ZNK10ap_privateILi3ELb0ELb1EE7get_bitEi = private unnamed_addr constant [93 x i8] c"bool ap_private<3, false, true>::get_bit(int) const [_AP_W = 3, _AP_S = false, _AP_C = true]\00", align 1
@_ZZNK10ap_privateILi3ELb0ELb1EE10isNegativeEvE9sign_mask = linkonce_odr constant i64 4, comdat, align 8
@.str.28 = private unnamed_addr constant [26 x i8] c"vector::_M_default_append\00", align 1
@_ZZNK10ap_privateILi64ELb1ELb1EE10isNegativeEvE9sign_mask = linkonce_odr constant i64 -9223372036854775808, comdat, align 8
@_ZZNK12ap_range_refILi64ELb1EE3getEvE4mask = linkonce_odr constant i64 -1, comdat, align 8
@__PRETTY_FUNCTION__._ZNK10ap_privateILi64ELb1ELb1EE7get_bitEi = private unnamed_addr constant [93 x i8] c"bool ap_private<64, true, true>::get_bit(int) const [_AP_W = 64, _AP_S = true, _AP_C = true]\00", align 1
@_ZZNK10ap_privateILi64ELb0ELb1EE10isNegativeEvE9sign_mask = linkonce_odr constant i64 -9223372036854775808, comdat, align 8
@__PRETTY_FUNCTION__._ZNK10ap_privateILi64ELb0ELb1EE7get_bitEi = private unnamed_addr constant [95 x i8] c"bool ap_private<64, false, true>::get_bit(int) const [_AP_W = 64, _AP_S = false, _AP_C = true]\00", align 1
@llvm.global_ctors = appending global [1 x { i32, void ()*, i8* }] [{ i32, void ()*, i8* } { i32 65535, void ()* @_GLOBAL__sub_I_AccelSchedule.cpp, i8* null }]

define internal void @__cxx_global_var_init() #0 !dbg !8029 {
  %1 = call %"class.std::ios_base::Init"* @_ZNSt8ios_base4InitC1Ev(%"class.std::ios_base::Init"* @_ZStL8__ioinit), !dbg !8030
  %2 = call i32 @__cxa_atexit(void (i8*)* bitcast (%"class.std::ios_base::Init"* (%"class.std::ios_base::Init"*)* @_ZNSt8ios_base4InitD1Ev to void (i8*)*), i8* getelementptr inbounds (%"class.std::ios_base::Init", %"class.std::ios_base::Init"* @_ZStL8__ioinit, i32 0, i32 0), i8* @__dso_handle) #3, !dbg !8031
  ret void, !dbg !8030
}

declare !xidane.fname !8033 !xidane.function_declaration_type !8034 !xidane.function_declaration_filename !8035 %"class.std::ios_base::Init"* @_ZNSt8ios_base4InitC1Ev(%"class.std::ios_base::Init"* returned) unnamed_addr #1

; Function Attrs: nounwind
declare !xidane.fname !8036 !xidane.function_declaration_type !8034 !xidane.function_declaration_filename !8035 %"class.std::ios_base::Init"* @_ZNSt8ios_base4InitD1Ev(%"class.std::ios_base::Init"* returned) unnamed_addr #2

; Function Attrs: nounwind
declare i32 @__cxa_atexit(void (i8*)*, i8*, i8*) #3

define internal void @__cxx_global_var_init.1() #0 personality i8* bitcast (i32 (...)* @__gxx_personality_v0 to i8*) !dbg !8037 {
  %1 = alloca %class.Timer*, align 4
  %2 = alloca i8*
  %3 = alloca i32
  store %class.Timer* getelementptr inbounds ([9 x %class.Timer], [9 x %class.Timer]* @_ZL6timers, i32 0, i32 0), %class.Timer** %1, align 4, !dbg !8038
  %4 = invoke %class.Timer* @_ZN5TimerC1EPKcb(%class.Timer* getelementptr inbounds ([9 x %class.Timer], [9 x %class.Timer]* @_ZL6timers, i32 0, i32 0), i8* getelementptr inbounds ([7 x i8], [7 x i8]* @.str, i32 0, i32 0), i1 zeroext false)
          to label %5 unwind label %23, !dbg !8039

; <label>:5:                                      ; preds = %0
  store %class.Timer* getelementptr inbounds ([9 x %class.Timer], [9 x %class.Timer]* @_ZL6timers, i32 0, i32 1), %class.Timer** %1, align 4, !dbg !8040
  %6 = invoke %class.Timer* @_ZN5TimerC1EPKcb(%class.Timer* getelementptr inbounds ([9 x %class.Timer], [9 x %class.Timer]* @_ZL6timers, i32 0, i32 1), i8* getelementptr inbounds ([7 x i8], [7 x i8]* @.str.2, i32 0, i32 0), i1 zeroext false)
          to label %7 unwind label %23, !dbg !8042

; <label>:7:                                      ; preds = %5
  store %class.Timer* getelementptr inbounds ([9 x %class.Timer], [9 x %class.Timer]* @_ZL6timers, i32 0, i32 2), %class.Timer** %1, align 4, !dbg !8043
  %8 = invoke %class.Timer* @_ZN5TimerC1EPKcb(%class.Timer* getelementptr inbounds ([9 x %class.Timer], [9 x %class.Timer]* @_ZL6timers, i32 0, i32 2), i8* getelementptr inbounds ([7 x i8], [7 x i8]* @.str.3, i32 0, i32 0), i1 zeroext false)
          to label %9 unwind label %23, !dbg !8045

; <label>:9:                                      ; preds = %7
  store %class.Timer* getelementptr inbounds ([9 x %class.Timer], [9 x %class.Timer]* @_ZL6timers, i32 0, i32 3), %class.Timer** %1, align 4, !dbg !8046
  %10 = invoke %class.Timer* @_ZN5TimerC1EPKcb(%class.Timer* getelementptr inbounds ([9 x %class.Timer], [9 x %class.Timer]* @_ZL6timers, i32 0, i32 3), i8* getelementptr inbounds ([9 x i8], [9 x i8]* @.str.4, i32 0, i32 0), i1 zeroext false)
          to label %11 unwind label %23, !dbg !8048

; <label>:11:                                     ; preds = %9
  store %class.Timer* getelementptr inbounds ([9 x %class.Timer], [9 x %class.Timer]* @_ZL6timers, i32 0, i32 4), %class.Timer** %1, align 4, !dbg !8049
  %12 = invoke %class.Timer* @_ZN5TimerC1EPKcb(%class.Timer* getelementptr inbounds ([9 x %class.Timer], [9 x %class.Timer]* @_ZL6timers, i32 0, i32 4), i8* getelementptr inbounds ([9 x i8], [9 x i8]* @.str.5, i32 0, i32 0), i1 zeroext false)
          to label %13 unwind label %23, !dbg !8051

; <label>:13:                                     ; preds = %11
  store %class.Timer* getelementptr inbounds ([9 x %class.Timer], [9 x %class.Timer]* @_ZL6timers, i32 0, i32 5), %class.Timer** %1, align 4, !dbg !8052
  %14 = invoke %class.Timer* @_ZN5TimerC1EPKcb(%class.Timer* getelementptr inbounds ([9 x %class.Timer], [9 x %class.Timer]* @_ZL6timers, i32 0, i32 5), i8* getelementptr inbounds ([9 x i8], [9 x i8]* @.str.6, i32 0, i32 0), i1 zeroext false)
          to label %15 unwind label %23, !dbg !8054

; <label>:15:                                     ; preds = %13
  store %class.Timer* getelementptr inbounds ([9 x %class.Timer], [9 x %class.Timer]* @_ZL6timers, i32 0, i32 6), %class.Timer** %1, align 4, !dbg !8055
  %16 = invoke %class.Timer* @_ZN5TimerC1EPKcb(%class.Timer* getelementptr inbounds ([9 x %class.Timer], [9 x %class.Timer]* @_ZL6timers, i32 0, i32 6), i8* getelementptr inbounds ([9 x i8], [9 x i8]* @.str.7, i32 0, i32 0), i1 zeroext false)
          to label %17 unwind label %23, !dbg !8057

; <label>:17:                                     ; preds = %15
  store %class.Timer* getelementptr inbounds ([9 x %class.Timer], [9 x %class.Timer]* @_ZL6timers, i32 0, i32 7), %class.Timer** %1, align 4, !dbg !8058
  %18 = invoke %class.Timer* @_ZN5TimerC1EPKcb(%class.Timer* getelementptr inbounds ([9 x %class.Timer], [9 x %class.Timer]* @_ZL6timers, i32 0, i32 7), i8* getelementptr inbounds ([9 x i8], [9 x i8]* @.str.8, i32 0, i32 0), i1 zeroext false)
          to label %19 unwind label %23, !dbg !8060

; <label>:19:                                     ; preds = %17
  store %class.Timer* getelementptr inbounds ([9 x %class.Timer], [9 x %class.Timer]* @_ZL6timers, i32 0, i32 8), %class.Timer** %1, align 4, !dbg !8061
  %20 = invoke %class.Timer* @_ZN5TimerC1EPKcb(%class.Timer* getelementptr inbounds ([9 x %class.Timer], [9 x %class.Timer]* @_ZL6timers, i32 0, i32 8), i8* getelementptr inbounds ([9 x i8], [9 x i8]* @.str.9, i32 0, i32 0), i1 zeroext false)
          to label %21 unwind label %23, !dbg !8063

; <label>:21:                                     ; preds = %19
  %22 = call i32 @__cxa_atexit(void (i8*)* @__cxx_global_array_dtor, i8* null, i8* @__dso_handle) #3, !dbg !8064
  ret void, !dbg !8066

; <label>:23:                                     ; preds = %19, %17, %15, %13, %11, %9, %7, %5, %0
  %24 = landingpad { i8*, i32 }
          cleanup, !dbg !8067
  %25 = extractvalue { i8*, i32 } %24, 0, !dbg !8067
  store i8* %25, i8** %2, align 4, !dbg !8067
  %26 = extractvalue { i8*, i32 } %24, 1, !dbg !8067
  store i32 %26, i32* %3, align 4, !dbg !8067
  %27 = load %class.Timer*, %class.Timer** %1, align 4, !dbg !8069
  %28 = icmp eq %class.Timer* getelementptr inbounds ([9 x %class.Timer], [9 x %class.Timer]* @_ZL6timers, i32 0, i32 0), %27, !dbg !8069
  br i1 %28, label %34, label %29, !dbg !8069

; <label>:29:                                     ; preds = %29, %23
  %30 = phi %class.Timer* [ %27, %23 ], [ %31, %29 ], !dbg !8070
  %31 = getelementptr inbounds %class.Timer, %class.Timer* %30, i32 -1, !dbg !8070
  %32 = call %class.Timer* @_ZN5TimerD1Ev(%class.Timer* %31) #3, !dbg !8070
  %33 = icmp eq %class.Timer* %31, getelementptr inbounds ([9 x %class.Timer], [9 x %class.Timer]* @_ZL6timers, i32 0, i32 0), !dbg !8070
  br i1 %33, label %34, label %29, !dbg !8070

; <label>:34:                                     ; preds = %29, %23
  br label %35, !dbg !8072

; <label>:35:                                     ; preds = %34
  %36 = load i8*, i8** %2, align 4, !dbg !8074
  %37 = load i32, i32* %3, align 4, !dbg !8074
  %38 = insertvalue { i8*, i32 } undef, i8* %36, 0, !dbg !8074
  %39 = insertvalue { i8*, i32 } %38, i32 %37, 1, !dbg !8074
  resume { i8*, i32 } %39, !dbg !8074
}

declare !xidane.fname !8076 !xidane.function_declaration_type !8077 !xidane.function_declaration_filename !8078 %class.Timer* @_ZN5TimerC1EPKcb(%class.Timer* returned, i8*, i1 zeroext) unnamed_addr #1

declare i32 @__gxx_personality_v0(...)

; Function Attrs: nounwind
declare !xidane.fname !8079 !xidane.function_declaration_type !8034 !xidane.function_declaration_filename !8078 %class.Timer* @_ZN5TimerD1Ev(%class.Timer* returned) unnamed_addr #2

define internal void @__cxx_global_array_dtor(i8*) #0 !dbg !8080 {
  %2 = alloca i8*, align 4
  store i8* %0, i8** %2, align 4
  call void @llvm.dbg.declare(metadata i8** %2, metadata !8081, metadata !8082), !dbg !8083
  br label %3, !dbg !8084

; <label>:3:                                      ; preds = %3, %1
  %4 = phi %class.Timer* [ getelementptr inbounds (%class.Timer, %class.Timer* getelementptr inbounds ([9 x %class.Timer], [9 x %class.Timer]* @_ZL6timers, i32 0, i32 0), i32 9), %1 ], [ %5, %3 ], !dbg !8085
  %5 = getelementptr inbounds %class.Timer, %class.Timer* %4, i32 -1, !dbg !8085
  %6 = call %class.Timer* @_ZN5TimerD1Ev(%class.Timer* %5) #3, !dbg !8085
  %7 = icmp eq %class.Timer* %5, getelementptr inbounds ([9 x %class.Timer], [9 x %class.Timer]* @_ZL6timers, i32 0, i32 0), !dbg !8085
  br i1 %7, label %8, label %3, !dbg !8085

; <label>:8:                                      ; preds = %3
  ret void, !dbg !8087
}

; Function Attrs: nounwind readnone
declare void @llvm.dbg.declare(metadata, metadata, metadata) #4

define void @_Z22compute_accel_scheduleP6ap_intILi64EES1_jjj7ap_uintILi2EES2_ILi1EERSt6vectorI9AccelInfoSaIS6_EE(%class.ap_int*, %class.ap_int*, i32, i32, i32, %class.ap_uint.1*, %class.ap_uint.3*, %"class.std::vector"* dereferenceable(12)) #0 personality i8* bitcast (i32 (...)* @__gxx_personality_v0 to i8*) !dbg !8089 !xidane.fname !8092 !xidane.function_declaration_type !8093 !xidane.function_declaration_filename !8094 {
  %9 = alloca %class.ap_int*, align 4
  %10 = alloca %class.ap_int*, align 4
  %11 = alloca i32, align 4
  %12 = alloca i32, align 4
  %13 = alloca i32, align 4
  %14 = alloca %"class.std::vector"*, align 4
  %15 = alloca %class.ap_uint.1, align 1
  %16 = alloca %class.ap_uint, align 1
  %17 = alloca i8*
  %18 = alloca i32
  %19 = alloca %struct.ap_range_ref, align 4
  %20 = alloca %struct.ap_range_ref.5, align 4
  %21 = alloca i32, align 4
  %22 = alloca i32, align 4
  %23 = alloca i32, align 4
  %24 = alloca i32, align 4
  %25 = alloca i32, align 4
  %26 = alloca %struct.ap_bit_ref, align 4
  %27 = alloca %class.ap_uint.1, align 1
  %28 = alloca %class.ap_private.6, align 8
  %29 = alloca %class.ap_int*, align 4
  %30 = alloca %class.ap_int*, align 4
  store %class.ap_int* %0, %class.ap_int** %9, align 4
  call void @llvm.dbg.declare(metadata %class.ap_int** %9, metadata !8095, metadata !8082), !dbg !8096
  store %class.ap_int* %1, %class.ap_int** %10, align 4
  call void @llvm.dbg.declare(metadata %class.ap_int** %10, metadata !8097, metadata !8082), !dbg !8098
  store i32 %2, i32* %11, align 4
  call void @llvm.dbg.declare(metadata i32* %11, metadata !8099, metadata !8082), !dbg !8100
  store i32 %3, i32* %12, align 4
  call void @llvm.dbg.declare(metadata i32* %12, metadata !8101, metadata !8082), !dbg !8102
  store i32 %4, i32* %13, align 4
  call void @llvm.dbg.declare(metadata i32* %13, metadata !8103, metadata !8082), !dbg !8104
  call void @llvm.dbg.declare(metadata %class.ap_uint.1* %5, metadata !8105, metadata !8106), !dbg !8107
  call void @llvm.dbg.declare(metadata %class.ap_uint.3* %6, metadata !8108, metadata !8106), !dbg !8109
  store %"class.std::vector"* %7, %"class.std::vector"** %14, align 4
  call void @llvm.dbg.declare(metadata %"class.std::vector"** %14, metadata !8110, metadata !8082), !dbg !8111
  %31 = load %class.ap_int*, %class.ap_int** %9, align 4, !dbg !8112
  %32 = icmp ne %class.ap_int* %31, null, !dbg !8112
  br i1 %32, label %33, label %34, !dbg !8112

; <label>:33:                                     ; preds = %8
  br label %36, !dbg !8113

; <label>:34:                                     ; preds = %8
  call void @__assert_func(i8* getelementptr inbounds ([92 x i8], [92 x i8]* @.str.10, i32 0, i32 0), i32 38, i8* getelementptr inbounds ([139 x i8], [139 x i8]* @__PRETTY_FUNCTION__._Z22compute_accel_scheduleP6ap_intILi64EES1_jjj7ap_uintILi2EES2_ILi1EERSt6vectorI9AccelInfoSaIS6_EE, i32 0, i32 0), i8* getelementptr inbounds ([11 x i8], [11 x i8]* @.str.11, i32 0, i32 0)) #14, !dbg !8115
  unreachable, !dbg !8115
                                                  ; No predecessors!
  br label %36, !dbg !8117

; <label>:36:                                     ; preds = %35, %33
  %37 = load %class.ap_int*, %class.ap_int** %10, align 4, !dbg !8119
  %38 = icmp ne %class.ap_int* %37, null, !dbg !8119
  br i1 %38, label %39, label %40, !dbg !8119

; <label>:39:                                     ; preds = %36
  br label %42, !dbg !8120

; <label>:40:                                     ; preds = %36
  call void @__assert_func(i8* getelementptr inbounds ([92 x i8], [92 x i8]* @.str.10, i32 0, i32 0), i32 39, i8* getelementptr inbounds ([139 x i8], [139 x i8]* @__PRETTY_FUNCTION__._Z22compute_accel_scheduleP6ap_intILi64EES1_jjj7ap_uintILi2EES2_ILi1EERSt6vectorI9AccelInfoSaIS6_EE, i32 0, i32 0), i8* getelementptr inbounds ([11 x i8], [11 x i8]* @.str.12, i32 0, i32 0)) #14, !dbg !8121
  unreachable, !dbg !8121
                                                  ; No predecessors!
  br label %42, !dbg !8122

; <label>:42:                                     ; preds = %41, %39
  call void @llvm.dbg.declare(metadata %class.ap_uint.1* %15, metadata !8123, metadata !8082), !dbg !8124
  %43 = load i32, i32* %13, align 4, !dbg !8125
  %44 = lshr i32 %43, 4, !dbg !8126
  %45 = call %class.ap_uint.1* @_ZN7ap_uintILi2EEC2Ej(%class.ap_uint.1* %15, i32 %44), !dbg !8125
  call void @llvm.dbg.declare(metadata %class.ap_uint* %16, metadata !8127, metadata !8082), !dbg !8128
  %46 = invoke %class.ap_uint* @_ZN7ap_uintILi3EEC2Ei(%class.ap_uint* %16, i32 0)
          to label %47 unwind label %78, !dbg !8129

; <label>:47:                                     ; preds = %42
  %48 = bitcast %class.ap_uint* %16 to %class.ap_private.0*, !dbg !8130
  invoke void @_ZN10ap_privateILi3ELb0ELb1EEclEii(%struct.ap_range_ref* sret %19, %class.ap_private.0* %48, i32 2, i32 1)
          to label %49 unwind label %82, !dbg !8130

; <label>:49:                                     ; preds = %47
  %50 = bitcast %class.ap_uint.1* %5 to %class.ap_private.2*, !dbg !8131
  invoke void @_ZNK10ap_privateILi2ELb0ELb1EEclEii(%struct.ap_range_ref.5* sret %20, %class.ap_private.2* %50, i32 1, i32 0)
          to label %51 unwind label %82, !dbg !8131

; <label>:51:                                     ; preds = %49
  %52 = invoke dereferenceable(12) %struct.ap_range_ref* @_ZN12ap_range_refILi3ELb0EEaSILi2ELb0EEERS0_RKS_IXT_EXT0_EE(%struct.ap_range_ref* %19, %struct.ap_range_ref.5* dereferenceable(12) %20)
          to label %53 unwind label %82, !dbg !8132

; <label>:53:                                     ; preds = %51
  call void @llvm.dbg.declare(metadata i32* %21, metadata !8133, metadata !8082), !dbg !8134
  %54 = bitcast %class.ap_uint.3* %6 to %class.ap_private.4*, !dbg !8135
  %55 = invoke zeroext i1 @_ZeqILi1ELb0EEbRK10ap_privateIXT_EXT0_EXleT_Li64EEEi(%class.ap_private.4* dereferenceable(1) %54, i32 0)
          to label %56 unwind label %82, !dbg !8136

; <label>:56:                                     ; preds = %53
  br i1 %55, label %57, label %59, !dbg !8137

; <label>:57:                                     ; preds = %56
  %58 = load i32, i32* %13, align 4, !dbg !8138
  br label %62, !dbg !8139

; <label>:59:                                     ; preds = %56
  %60 = load i32, i32* %13, align 4, !dbg !8140
  %61 = udiv i32 %60, 2, !dbg !8141
  br label %62, !dbg !8142

; <label>:62:                                     ; preds = %59, %57
  %63 = phi i32 [ %58, %57 ], [ %61, %59 ], !dbg !8143
  store i32 %63, i32* %21, align 4, !dbg !8145
  call void @llvm.dbg.declare(metadata i32* %22, metadata !8146, metadata !8082), !dbg !8147
  store i32 0, i32* %22, align 4, !dbg !8147
  %64 = bitcast %class.ap_uint.1* %5 to %class.ap_private.2*, !dbg !8148
  %65 = invoke zeroext i1 @_ZeqILi2ELb0EEbRK10ap_privateIXT_EXT0_EXleT_Li64EEEi(%class.ap_private.2* dereferenceable(1) %64, i32 0)
          to label %66 unwind label %82, !dbg !8150

; <label>:66:                                     ; preds = %62
  br i1 %65, label %71, label %67, !dbg !8151

; <label>:67:                                     ; preds = %66
  %68 = bitcast %class.ap_uint.1* %5 to %class.ap_private.2*, !dbg !8153
  %69 = invoke zeroext i1 @_ZeqILi2ELb0EEbRK10ap_privateIXT_EXT0_EXleT_Li64EEEi(%class.ap_private.2* dereferenceable(1) %68, i32 1)
          to label %70 unwind label %82, !dbg !8155

; <label>:70:                                     ; preds = %67
  br i1 %69, label %71, label %86, !dbg !8156

; <label>:71:                                     ; preds = %70, %66
  %72 = load i32, i32* %13, align 4, !dbg !8157
  %73 = load i32, i32* %21, align 4, !dbg !8158
  %74 = load i32, i32* %11, align 4, !dbg !8159
  %75 = load i32, i32* %12, align 4, !dbg !8160
  %76 = invoke i32 @_Z20find_conv_batch_sizejjjj(i32 %72, i32 %73, i32 %74, i32 %75)
          to label %77 unwind label %82, !dbg !8161

; <label>:77:                                     ; preds = %71
  store i32 %76, i32* %22, align 4, !dbg !8162
  br label %86, !dbg !8163

; <label>:78:                                     ; preds = %42
  %79 = landingpad { i8*, i32 }
          cleanup, !dbg !8164
  %80 = extractvalue { i8*, i32 } %79, 0, !dbg !8164
  store i8* %80, i8** %17, align 4, !dbg !8164
  %81 = extractvalue { i8*, i32 } %79, 1, !dbg !8164
  store i32 %81, i32* %18, align 4, !dbg !8164
  br label %238, !dbg !8164

; <label>:82:                                     ; preds = %219, %213, %204, %196, %189, %185, %168, %157, %147, %141, %125, %119, %117, %106, %103, %94, %90, %86, %71, %67, %62, %53, %51, %49, %47
  %83 = landingpad { i8*, i32 }
          cleanup, !dbg !8165
  %84 = extractvalue { i8*, i32 } %83, 0, !dbg !8165
  store i8* %84, i8** %17, align 4, !dbg !8165
  %85 = extractvalue { i8*, i32 } %83, 1, !dbg !8165
  store i32 %85, i32* %18, align 4, !dbg !8165
  br label %236, !dbg !8165

; <label>:86:                                     ; preds = %77, %70
  %87 = bitcast %class.ap_uint.1* %5 to %class.ap_private.2*, !dbg !8166
  %88 = invoke zeroext i1 @_ZeqILi2ELb0EEbRK10ap_privateIXT_EXT0_EXleT_Li64EEEi(%class.ap_private.2* dereferenceable(1) %87, i32 2)
          to label %89 unwind label %82, !dbg !8168

; <label>:89:                                     ; preds = %86
  br i1 %88, label %94, label %90, !dbg !8169

; <label>:90:                                     ; preds = %89
  %91 = bitcast %class.ap_uint.1* %5 to %class.ap_private.2*, !dbg !8171
  %92 = invoke zeroext i1 @_ZeqILi2ELb0EEbRK10ap_privateIXT_EXT0_EXleT_Li64EEEi(%class.ap_private.2* dereferenceable(1) %91, i32 3)
          to label %93 unwind label %82, !dbg !8173

; <label>:93:                                     ; preds = %90
  br i1 %92, label %94, label %99, !dbg !8174

; <label>:94:                                     ; preds = %93, %89
  store i32 1, i32* %21, align 4, !dbg !8175
  %95 = load i32, i32* %11, align 4, !dbg !8177
  %96 = load i32, i32* %12, align 4, !dbg !8178
  %97 = invoke i32 @_Z21find_dense_batch_sizejj(i32 %95, i32 %96)
          to label %98 unwind label %82, !dbg !8179

; <label>:98:                                     ; preds = %94
  store i32 %97, i32* %22, align 4, !dbg !8180
  br label %99, !dbg !8182

; <label>:99:                                     ; preds = %98, %93
  %100 = load i32, i32* %22, align 4, !dbg !8183
  %101 = icmp ne i32 %100, 0, !dbg !8183
  br i1 %101, label %102, label %103, !dbg !8183

; <label>:102:                                    ; preds = %99
  br label %106, !dbg !8184

; <label>:103:                                    ; preds = %99
  invoke void @__assert_func(i8* getelementptr inbounds ([92 x i8], [92 x i8]* @.str.10, i32 0, i32 0), i32 57, i8* getelementptr inbounds ([139 x i8], [139 x i8]* @__PRETTY_FUNCTION__._Z22compute_accel_scheduleP6ap_intILi64EES1_jjj7ap_uintILi2EES2_ILi1EERSt6vectorI9AccelInfoSaIS6_EE, i32 0, i32 0), i8* getelementptr inbounds ([20 x i8], [20 x i8]* @.str.13, i32 0, i32 0)) #14
          to label %104 unwind label %82, !dbg !8185

; <label>:104:                                    ; preds = %103
  unreachable, !dbg !8186
                                                  ; No predecessors!
  br label %106, !dbg !8187

; <label>:106:                                    ; preds = %105, %102
  call void @llvm.dbg.declare(metadata i32* %23, metadata !8188, metadata !8082), !dbg !8189
  %107 = load i32, i32* %12, align 4, !dbg !8190
  %108 = load i32, i32* %22, align 4, !dbg !8191
  %109 = udiv i32 %107, %108, !dbg !8192
  store i32 %109, i32* %23, align 4, !dbg !8189
  %110 = load %"class.std::vector"*, %"class.std::vector"** %14, align 4, !dbg !8193
  %111 = load i32, i32* %23, align 4, !dbg !8194
  invoke void @_ZNSt6vectorI9AccelInfoSaIS0_EE6resizeEj(%"class.std::vector"* %110, i32 %111)
          to label %112 unwind label %82, !dbg !8195

; <label>:112:                                    ; preds = %106
  call void @llvm.dbg.declare(metadata i32* %24, metadata !8196, metadata !8082), !dbg !8197
  store i32 0, i32* %24, align 4, !dbg !8197
  call void @llvm.dbg.declare(metadata i32* %25, metadata !8198, metadata !8082), !dbg !8200
  store i32 0, i32* %25, align 4, !dbg !8200
  br label %113, !dbg !8201

; <label>:113:                                    ; preds = %227, %112
  %114 = load i32, i32* %25, align 4, !dbg !8202
  %115 = load i32, i32* %12, align 4, !dbg !8205
  %116 = icmp ult i32 %114, %115, !dbg !8206
  br i1 %116, label %117, label %233, !dbg !8207

; <label>:117:                                    ; preds = %113
  %118 = bitcast %class.ap_uint* %16 to %class.ap_private.0*, !dbg !8208
  invoke void @_ZN10ap_privateILi3ELb0ELb1EEixEi(%struct.ap_bit_ref* sret %26, %class.ap_private.0* %118, i32 0)
          to label %119 unwind label %82, !dbg !8208

; <label>:119:                                    ; preds = %117
  %120 = load i32, i32* %25, align 4, !dbg !8210
  %121 = icmp eq i32 %120, 0, !dbg !8212
  %122 = select i1 %121, i32 1, i32 0, !dbg !8213
  %123 = sext i32 %122 to i64, !dbg !8213
  %124 = invoke dereferenceable(8) %struct.ap_bit_ref* @_ZN10ap_bit_refILi3ELb0EEaSEy(%struct.ap_bit_ref* %26, i64 %123)
          to label %125 unwind label %82, !dbg !8214

; <label>:125:                                    ; preds = %119
  %126 = load i32, i32* %11, align 4, !dbg !8215
  %127 = load %"class.std::vector"*, %"class.std::vector"** %14, align 4, !dbg !8216
  %128 = load i32, i32* %24, align 4, !dbg !8217
  %129 = call dereferenceable(20) %struct.AccelInfo* @_ZNSt6vectorI9AccelInfoSaIS0_EEixEj(%"class.std::vector"* %127, i32 %128) #3, !dbg !8216
  %130 = getelementptr inbounds %struct.AccelInfo, %struct.AccelInfo* %129, i32 0, i32 2, !dbg !8218
  store i32 %126, i32* %130, align 4, !dbg !8219
  %131 = load i32, i32* %22, align 4, !dbg !8220
  %132 = load %"class.std::vector"*, %"class.std::vector"** %14, align 4, !dbg !8221
  %133 = load i32, i32* %24, align 4, !dbg !8222
  %134 = call dereferenceable(20) %struct.AccelInfo* @_ZNSt6vectorI9AccelInfoSaIS0_EEixEj(%"class.std::vector"* %132, i32 %133) #3, !dbg !8221
  %135 = getelementptr inbounds %struct.AccelInfo, %struct.AccelInfo* %134, i32 0, i32 3, !dbg !8223
  store i32 %131, i32* %135, align 4, !dbg !8224
  %136 = load %"class.std::vector"*, %"class.std::vector"** %14, align 4, !dbg !8225
  %137 = load i32, i32* %24, align 4, !dbg !8226
  %138 = call dereferenceable(20) %struct.AccelInfo* @_ZNSt6vectorI9AccelInfoSaIS0_EEixEj(%"class.std::vector"* %136, i32 %137) #3, !dbg !8225
  %139 = getelementptr inbounds %struct.AccelInfo, %struct.AccelInfo* %138, i32 0, i32 4, !dbg !8227
  %140 = invoke dereferenceable(1) %class.ap_uint* @_ZN7ap_uintILi3EEaSERKS0_(%class.ap_uint* %139, %class.ap_uint* dereferenceable(1) %16)
          to label %141 unwind label %82, !dbg !8228

; <label>:141:                                    ; preds = %125
  %142 = load %"class.std::vector"*, %"class.std::vector"** %14, align 4, !dbg !8229
  %143 = load i32, i32* %24, align 4, !dbg !8230
  %144 = call dereferenceable(20) %struct.AccelInfo* @_ZNSt6vectorI9AccelInfoSaIS0_EEixEj(%"class.std::vector"* %142, i32 %143) #3, !dbg !8229
  %145 = getelementptr inbounds %struct.AccelInfo, %struct.AccelInfo* %144, i32 0, i32 5, !dbg !8231
  %146 = invoke dereferenceable(1) %class.ap_uint.1* @_ZN7ap_uintILi2EEaSERKS0_(%class.ap_uint.1* %145, %class.ap_uint.1* dereferenceable(1) %15)
          to label %147 unwind label %82, !dbg !8232

; <label>:147:                                    ; preds = %141
  %148 = load %"class.std::vector"*, %"class.std::vector"** %14, align 4, !dbg !8233
  %149 = load i32, i32* %24, align 4, !dbg !8234
  %150 = call dereferenceable(20) %struct.AccelInfo* @_ZNSt6vectorI9AccelInfoSaIS0_EEixEj(%"class.std::vector"* %148, i32 %149) #3, !dbg !8233
  %151 = getelementptr inbounds %struct.AccelInfo, %struct.AccelInfo* %150, i32 0, i32 6, !dbg !8235
  %152 = bitcast %class.ap_uint.3* %6 to %class.ap_private.4*, !dbg !8236
  invoke void @_ZplILi1ELb0EEN10ap_privateIXT_EXT0_EXleT_Li64EEE5RTypeIXLi32EEXLb1EEE4plusERKS1_i(%class.ap_private.6* sret %28, %class.ap_private.4* dereferenceable(1) %152, i32 1)
          to label %153 unwind label %82, !dbg !8237

; <label>:153:                                    ; preds = %147
  %154 = invoke %class.ap_uint.1* @_ZN7ap_uintILi2EEC2ILi33ELb1EEERK10ap_privateIXT_EXT0_EXleT_Li64EEE(%class.ap_uint.1* %27, %class.ap_private.6* dereferenceable(8) %28)
          to label %155 unwind label %174, !dbg !8238

; <label>:155:                                    ; preds = %153
  %156 = invoke dereferenceable(1) %class.ap_uint.1* @_ZN7ap_uintILi2EEaSERKS0_(%class.ap_uint.1* %151, %class.ap_uint.1* dereferenceable(1) %27)
          to label %157 unwind label %178, !dbg !8239

; <label>:157:                                    ; preds = %155
  %158 = call %class.ap_uint.1* @_ZN7ap_uintILi2EED2Ev(%class.ap_uint.1* %27) #3, !dbg !8241
  %159 = call %class.ap_private.6* @_ZN10ap_privateILi33ELb1ELb1EED2Ev(%class.ap_private.6* %28) #3, !dbg !8243
  call void @llvm.dbg.declare(metadata %class.ap_int** %29, metadata !8245, metadata !8082), !dbg !8246
  %160 = load %"class.std::vector"*, %"class.std::vector"** %14, align 4, !dbg !8247
  %161 = load i32, i32* %24, align 4, !dbg !8248
  %162 = call dereferenceable(20) %struct.AccelInfo* @_ZNSt6vectorI9AccelInfoSaIS0_EEixEj(%"class.std::vector"* %160, i32 %161) #3, !dbg !8247
  %163 = getelementptr inbounds %struct.AccelInfo, %struct.AccelInfo* %162, i32 0, i32 0, !dbg !8249
  %164 = load %class.ap_int*, %class.ap_int** %163, align 4, !dbg !8249
  store %class.ap_int* %164, %class.ap_int** %29, align 4, !dbg !8246
  %165 = bitcast %class.ap_uint.1* %5 to %class.ap_private.2*, !dbg !8250
  %166 = invoke zeroext i1 @_ZeqILi2ELb0EEbRK10ap_privateIXT_EXT0_EXleT_Li64EEEi(%class.ap_private.2* dereferenceable(1) %165, i32 0)
          to label %167 unwind label %82, !dbg !8252

; <label>:167:                                    ; preds = %157
  br i1 %166, label %168, label %185, !dbg !8253

; <label>:168:                                    ; preds = %167
  %169 = load %class.ap_int*, %class.ap_int** %9, align 4, !dbg !8254
  %170 = load %class.ap_int*, %class.ap_int** %29, align 4, !dbg !8255
  %171 = load i32, i32* %25, align 4, !dbg !8256
  %172 = load i32, i32* %22, align 4, !dbg !8257
  invoke void @_Z18load_conv1_weightsP6ap_intILi64EES1_jj(%class.ap_int* %169, %class.ap_int* %170, i32 %171, i32 %172)
          to label %173 unwind label %82, !dbg !8258

; <label>:173:                                    ; preds = %168
  br label %204, !dbg !8259

; <label>:174:                                    ; preds = %153
  %175 = landingpad { i8*, i32 }
          cleanup, !dbg !8261
  %176 = extractvalue { i8*, i32 } %175, 0, !dbg !8261
  store i8* %176, i8** %17, align 4, !dbg !8261
  %177 = extractvalue { i8*, i32 } %175, 1, !dbg !8261
  store i32 %177, i32* %18, align 4, !dbg !8261
  br label %183, !dbg !8261

; <label>:178:                                    ; preds = %155
  %179 = landingpad { i8*, i32 }
          cleanup, !dbg !8262
  %180 = extractvalue { i8*, i32 } %179, 0, !dbg !8262
  store i8* %180, i8** %17, align 4, !dbg !8262
  %181 = extractvalue { i8*, i32 } %179, 1, !dbg !8262
  store i32 %181, i32* %18, align 4, !dbg !8262
  %182 = call %class.ap_uint.1* @_ZN7ap_uintILi2EED2Ev(%class.ap_uint.1* %27) #3, !dbg !8263
  br label %183, !dbg !8263

; <label>:183:                                    ; preds = %178, %174
  %184 = call %class.ap_private.6* @_ZN10ap_privateILi33ELb1ELb1EED2Ev(%class.ap_private.6* %28) #3, !dbg !8265
  br label %236, !dbg !8265

; <label>:185:                                    ; preds = %167
  %186 = bitcast %class.ap_uint.1* %5 to %class.ap_private.2*, !dbg !8267
  %187 = invoke zeroext i1 @_ZeqILi2ELb0EEbRK10ap_privateIXT_EXT0_EXleT_Li64EEEi(%class.ap_private.2* dereferenceable(1) %186, i32 1)
          to label %188 unwind label %82, !dbg !8269

; <label>:188:                                    ; preds = %185
  br i1 %187, label %189, label %196, !dbg !8270

; <label>:189:                                    ; preds = %188
  %190 = load %class.ap_int*, %class.ap_int** %9, align 4, !dbg !8271
  %191 = load %class.ap_int*, %class.ap_int** %29, align 4, !dbg !8272
  %192 = load i32, i32* %25, align 4, !dbg !8273
  %193 = load i32, i32* %11, align 4, !dbg !8274
  %194 = load i32, i32* %22, align 4, !dbg !8275
  invoke void @_Z17load_conv_weightsP6ap_intILi64EES1_jjj(%class.ap_int* %190, %class.ap_int* %191, i32 %192, i32 %193, i32 %194)
          to label %195 unwind label %82, !dbg !8276

; <label>:195:                                    ; preds = %189
  br label %203, !dbg !8277

; <label>:196:                                    ; preds = %188
  %197 = load %class.ap_int*, %class.ap_int** %9, align 4, !dbg !8279
  %198 = load %class.ap_int*, %class.ap_int** %29, align 4, !dbg !8280
  %199 = load i32, i32* %25, align 4, !dbg !8281
  %200 = load i32, i32* %11, align 4, !dbg !8282
  %201 = load i32, i32* %22, align 4, !dbg !8283
  invoke void @_Z18load_dense_weightsP6ap_intILi64EES1_jjj(%class.ap_int* %197, %class.ap_int* %198, i32 %199, i32 %200, i32 %201)
          to label %202 unwind label %82, !dbg !8284

; <label>:202:                                    ; preds = %196
  br label %203

; <label>:203:                                    ; preds = %202, %195
  br label %204

; <label>:204:                                    ; preds = %203, %173
  call void @llvm.dbg.declare(metadata %class.ap_int** %30, metadata !8285, metadata !8082), !dbg !8286
  %205 = load %"class.std::vector"*, %"class.std::vector"** %14, align 4, !dbg !8287
  %206 = load i32, i32* %24, align 4, !dbg !8288
  %207 = call dereferenceable(20) %struct.AccelInfo* @_ZNSt6vectorI9AccelInfoSaIS0_EEixEj(%"class.std::vector"* %205, i32 %206) #3, !dbg !8287
  %208 = getelementptr inbounds %struct.AccelInfo, %struct.AccelInfo* %207, i32 0, i32 1, !dbg !8289
  %209 = load %class.ap_int*, %class.ap_int** %208, align 4, !dbg !8289
  store %class.ap_int* %209, %class.ap_int** %30, align 4, !dbg !8286
  %210 = bitcast %class.ap_uint.1* %5 to %class.ap_private.2*, !dbg !8290
  %211 = invoke zeroext i1 @_ZneILi2ELb0EEbRK10ap_privateIXT_EXT0_EXleT_Li64EEEi(%class.ap_private.2* dereferenceable(1) %210, i32 3)
          to label %212 unwind label %82, !dbg !8292

; <label>:212:                                    ; preds = %204
  br i1 %211, label %213, label %219, !dbg !8293

; <label>:213:                                    ; preds = %212
  %214 = load %class.ap_int*, %class.ap_int** %10, align 4, !dbg !8294
  %215 = load %class.ap_int*, %class.ap_int** %30, align 4, !dbg !8295
  %216 = load i32, i32* %25, align 4, !dbg !8296
  %217 = load i32, i32* %22, align 4, !dbg !8297
  invoke void @_Z7load_khP6ap_intILi64EES1_jj(%class.ap_int* %214, %class.ap_int* %215, i32 %216, i32 %217)
          to label %218 unwind label %82, !dbg !8298

; <label>:218:                                    ; preds = %213
  br label %226, !dbg !8299

; <label>:219:                                    ; preds = %212
  %220 = load %class.ap_int*, %class.ap_int** %10, align 4, !dbg !8301
  %221 = load %class.ap_int*, %class.ap_int** %30, align 4, !dbg !8302
  %222 = load i32, i32* %25, align 4, !dbg !8303
  %223 = load i32, i32* %22, align 4, !dbg !8304
  %224 = mul i32 2, %223, !dbg !8305
  invoke void @_Z7load_khP6ap_intILi64EES1_jj(%class.ap_int* %220, %class.ap_int* %221, i32 %222, i32 %224)
          to label %225 unwind label %82, !dbg !8306

; <label>:225:                                    ; preds = %219
  br label %226

; <label>:226:                                    ; preds = %225, %218
  br label %227, !dbg !8307

; <label>:227:                                    ; preds = %226
  %228 = load i32, i32* %22, align 4, !dbg !8308
  %229 = load i32, i32* %25, align 4, !dbg !8310
  %230 = add i32 %229, %228, !dbg !8310
  store i32 %230, i32* %25, align 4, !dbg !8310
  %231 = load i32, i32* %24, align 4, !dbg !8311
  %232 = add i32 %231, 1, !dbg !8311
  store i32 %232, i32* %24, align 4, !dbg !8311
  br label %113, !dbg !8312, !llvm.loop !8313

; <label>:233:                                    ; preds = %113
  %234 = call %class.ap_uint* @_ZN7ap_uintILi3EED2Ev(%class.ap_uint* %16) #3, !dbg !8315
  %235 = call %class.ap_uint.1* @_ZN7ap_uintILi2EED2Ev(%class.ap_uint.1* %15) #3, !dbg !8316
  ret void, !dbg !8315

; <label>:236:                                    ; preds = %183, %82
  %237 = call %class.ap_uint* @_ZN7ap_uintILi3EED2Ev(%class.ap_uint* %16) #3, !dbg !8318
  br label %238, !dbg !8318

; <label>:238:                                    ; preds = %236, %78
  %239 = call %class.ap_uint.1* @_ZN7ap_uintILi2EED2Ev(%class.ap_uint.1* %15) #3, !dbg !8320
  br label %240, !dbg !8320

; <label>:240:                                    ; preds = %238
  %241 = load i8*, i8** %17, align 4, !dbg !8322
  %242 = load i32, i32* %18, align 4, !dbg !8322
  %243 = insertvalue { i8*, i32 } undef, i8* %241, 0, !dbg !8322
  %244 = insertvalue { i8*, i32 } %243, i32 %242, 1, !dbg !8322
  resume { i8*, i32 } %244, !dbg !8322
}

; Function Attrs: noreturn
declare !xidane.fname !8324 !xidane.function_declaration_type !8325 !xidane.function_declaration_filename !8326 !xidane.ExternC !8327 void @__assert_func(i8*, i32, i8*, i8*) #5

; Function Attrs: inlinehint
define linkonce_odr %class.ap_uint.1* @_ZN7ap_uintILi2EEC2Ej(%class.ap_uint.1* returned, i32) unnamed_addr #6 comdat align 2 !dbg !8328 !xidane.fname !8329 !xidane.function_declaration_type !8330 !xidane.function_declaration_filename !8331 {
  %3 = alloca %class.ap_uint.1*, align 4
  %4 = alloca i32, align 4
  store %class.ap_uint.1* %0, %class.ap_uint.1** %3, align 4
  call void @llvm.dbg.declare(metadata %class.ap_uint.1** %3, metadata !8332, metadata !8082), !dbg !8334
  store i32 %1, i32* %4, align 4
  call void @llvm.dbg.declare(metadata i32* %4, metadata !8335, metadata !8082), !dbg !8336
  %5 = load %class.ap_uint.1*, %class.ap_uint.1** %3, align 4
  %6 = bitcast %class.ap_uint.1* %5 to %class.ap_private.2*, !dbg !8336
  %7 = load i32, i32* %4, align 4, !dbg !8336
  %8 = call %class.ap_private.2* @_ZN10ap_privateILi2ELb0ELb1EEC2Ej(%class.ap_private.2* %6, i32 %7), !dbg !8336
  ret %class.ap_uint.1* %5, !dbg !8336
}

; Function Attrs: inlinehint
define linkonce_odr %class.ap_uint* @_ZN7ap_uintILi3EEC2Ei(%class.ap_uint* returned, i32) unnamed_addr #6 comdat align 2 !dbg !8337 !xidane.fname !8329 !xidane.function_declaration_type !8338 !xidane.function_declaration_filename !8331 {
  %3 = alloca %class.ap_uint*, align 4
  %4 = alloca i32, align 4
  store %class.ap_uint* %0, %class.ap_uint** %3, align 4
  call void @llvm.dbg.declare(metadata %class.ap_uint** %3, metadata !8339, metadata !8082), !dbg !8341
  store i32 %1, i32* %4, align 4
  call void @llvm.dbg.declare(metadata i32* %4, metadata !8342, metadata !8082), !dbg !8343
  %5 = load %class.ap_uint*, %class.ap_uint** %3, align 4
  %6 = bitcast %class.ap_uint* %5 to %class.ap_private.0*, !dbg !8343
  %7 = load i32, i32* %4, align 4, !dbg !8343
  %8 = call %class.ap_private.0* @_ZN10ap_privateILi3ELb0ELb1EEC2Ei(%class.ap_private.0* %6, i32 %7), !dbg !8343
  ret %class.ap_uint* %5, !dbg !8343
}

; Function Attrs: inlinehint
define linkonce_odr void @_ZN10ap_privateILi3ELb0ELb1EEclEii(%struct.ap_range_ref* noalias sret, %class.ap_private.0*, i32, i32) #6 comdat align 2 !dbg !8344 !xidane.fname !8345 !xidane.function_declaration_type !8346 !xidane.function_declaration_filename !8347 {
  %5 = alloca %class.ap_private.0*, align 4
  %6 = alloca i32, align 4
  %7 = alloca i32, align 4
  store %class.ap_private.0* %1, %class.ap_private.0** %5, align 4
  call void @llvm.dbg.declare(metadata %class.ap_private.0** %5, metadata !8348, metadata !8082), !dbg !8349
  store i32 %2, i32* %6, align 4
  call void @llvm.dbg.declare(metadata i32* %6, metadata !8350, metadata !8082), !dbg !8351
  store i32 %3, i32* %7, align 4
  call void @llvm.dbg.declare(metadata i32* %7, metadata !8352, metadata !8082), !dbg !8353
  %8 = load %class.ap_private.0*, %class.ap_private.0** %5, align 4
  %9 = load i32, i32* %6, align 4, !dbg !8354
  %10 = load i32, i32* %7, align 4, !dbg !8355
  %11 = call %struct.ap_range_ref* @_ZN12ap_range_refILi3ELb0EEC2EP10ap_privateILi3ELb0ELb1EEii(%struct.ap_range_ref* %0, %class.ap_private.0* %8, i32 %9, i32 %10), !dbg !8356
  ret void, !dbg !8357
}

; Function Attrs: inlinehint
define linkonce_odr dereferenceable(12) %struct.ap_range_ref* @_ZN12ap_range_refILi3ELb0EEaSILi2ELb0EEERS0_RKS_IXT_EXT0_EE(%struct.ap_range_ref*, %struct.ap_range_ref.5* dereferenceable(12)) #6 comdat align 2 personality i8* bitcast (i32 (...)* @__gxx_personality_v0 to i8*) !dbg !8358 !xidane.fname !8365 !xidane.function_declaration_type !8366 !xidane.function_declaration_filename !8367 {
  %3 = alloca %struct.ap_range_ref*, align 4
  %4 = alloca %struct.ap_range_ref.5*, align 4
  %5 = alloca %class.ap_private.0, align 1
  %6 = alloca i8*
  %7 = alloca i32
  store %struct.ap_range_ref* %0, %struct.ap_range_ref** %3, align 4
  call void @llvm.dbg.declare(metadata %struct.ap_range_ref** %3, metadata !8368, metadata !8082), !dbg !8370
  store %struct.ap_range_ref.5* %1, %struct.ap_range_ref.5** %4, align 4
  call void @llvm.dbg.declare(metadata %struct.ap_range_ref.5** %4, metadata !8371, metadata !8082), !dbg !8372
  %8 = load %struct.ap_range_ref*, %struct.ap_range_ref** %3, align 4
  call void @llvm.dbg.declare(metadata %class.ap_private.0* %5, metadata !8373, metadata !8082), !dbg !8374
  %9 = load %struct.ap_range_ref.5*, %struct.ap_range_ref.5** %4, align 4, !dbg !8375
  %10 = call %class.ap_private.0* @_ZN10ap_privateILi3ELb0ELb1EEC2ILi2ELb0EEERK12ap_range_refIXT_EXT0_EE(%class.ap_private.0* %5, %struct.ap_range_ref.5* dereferenceable(12) %9), !dbg !8374
  %11 = invoke dereferenceable(12) %struct.ap_range_ref* @_ZN12ap_range_refILi3ELb0EEaSILi3ELb0EEERS0_RK10ap_privateIXT_EXT0_EXleT_Li64EEE(%struct.ap_range_ref* %8, %class.ap_private.0* dereferenceable(1) %5)
          to label %12 unwind label %14, !dbg !8376

; <label>:12:                                     ; preds = %2
  %13 = call %class.ap_private.0* @_ZN10ap_privateILi3ELb0ELb1EED2Ev(%class.ap_private.0* %5) #3, !dbg !8377
  ret %struct.ap_range_ref* %11, !dbg !8377

; <label>:14:                                     ; preds = %2
  %15 = landingpad { i8*, i32 }
          cleanup, !dbg !8378
  %16 = extractvalue { i8*, i32 } %15, 0, !dbg !8378
  store i8* %16, i8** %6, align 4, !dbg !8378
  %17 = extractvalue { i8*, i32 } %15, 1, !dbg !8378
  store i32 %17, i32* %7, align 4, !dbg !8378
  %18 = call %class.ap_private.0* @_ZN10ap_privateILi3ELb0ELb1EED2Ev(%class.ap_private.0* %5) #3, !dbg !8378
  br label %19, !dbg !8378

; <label>:19:                                     ; preds = %14
  %20 = load i8*, i8** %6, align 4, !dbg !8380
  %21 = load i32, i32* %7, align 4, !dbg !8380
  %22 = insertvalue { i8*, i32 } undef, i8* %20, 0, !dbg !8380
  %23 = insertvalue { i8*, i32 } %22, i32 %21, 1, !dbg !8380
  resume { i8*, i32 } %23, !dbg !8380
}

; Function Attrs: inlinehint
define linkonce_odr void @_ZNK10ap_privateILi2ELb0ELb1EEclEii(%struct.ap_range_ref.5* noalias sret, %class.ap_private.2*, i32, i32) #6 comdat align 2 !dbg !8382 !xidane.fname !8345 !xidane.function_declaration_type !8383 !xidane.function_declaration_filename !8347 {
  %5 = alloca %class.ap_private.2*, align 4
  %6 = alloca i32, align 4
  %7 = alloca i32, align 4
  store %class.ap_private.2* %1, %class.ap_private.2** %5, align 4
  call void @llvm.dbg.declare(metadata %class.ap_private.2** %5, metadata !8384, metadata !8082), !dbg !8386
  store i32 %2, i32* %6, align 4
  call void @llvm.dbg.declare(metadata i32* %6, metadata !8387, metadata !8082), !dbg !8388
  store i32 %3, i32* %7, align 4
  call void @llvm.dbg.declare(metadata i32* %7, metadata !8389, metadata !8082), !dbg !8390
  %8 = load %class.ap_private.2*, %class.ap_private.2** %5, align 4
  %9 = load i32, i32* %6, align 4, !dbg !8391
  %10 = load i32, i32* %7, align 4, !dbg !8392
  %11 = call %struct.ap_range_ref.5* @_ZN12ap_range_refILi2ELb0EEC2EP10ap_privateILi2ELb0ELb1EEii(%struct.ap_range_ref.5* %0, %class.ap_private.2* %8, i32 %9, i32 %10), !dbg !8393
  ret void, !dbg !8394
}

; Function Attrs: inlinehint
define linkonce_odr zeroext i1 @_ZeqILi1ELb0EEbRK10ap_privateIXT_EXT0_EXleT_Li64EEEi(%class.ap_private.4* dereferenceable(1), i32) #6 comdat personality i8* bitcast (i32 (...)* @__gxx_personality_v0 to i8*) !dbg !8395 !xidane.fname !8399 !xidane.function_declaration_type !8400 !xidane.function_declaration_filename !8367 {
  %3 = alloca %class.ap_private.4*, align 4
  %4 = alloca i32, align 4
  %5 = alloca %class.ap_private.14, align 4
  %6 = alloca i8*
  %7 = alloca i32
  store %class.ap_private.4* %0, %class.ap_private.4** %3, align 4
  call void @llvm.dbg.declare(metadata %class.ap_private.4** %3, metadata !8401, metadata !8082), !dbg !8402
  store i32 %1, i32* %4, align 4
  call void @llvm.dbg.declare(metadata i32* %4, metadata !8403, metadata !8082), !dbg !8402
  %8 = load %class.ap_private.4*, %class.ap_private.4** %3, align 4, !dbg !8402
  %9 = load i32, i32* %4, align 4, !dbg !8402
  %10 = call %class.ap_private.14* @_ZN10ap_privateILi32ELb1ELb1EEC2Ei(%class.ap_private.14* %5, i32 %9), !dbg !8402
  %11 = invoke zeroext i1 @_ZNK10ap_privateILi1ELb0ELb1EEeqILi32ELb1EEEbRKS_IXT_EXT0_EXleT_Li64EEE(%class.ap_private.4* %8, %class.ap_private.14* dereferenceable(4) %5)
          to label %12 unwind label %14, !dbg !8402

; <label>:12:                                     ; preds = %2
  %13 = call %class.ap_private.14* @_ZN10ap_privateILi32ELb1ELb1EED2Ev(%class.ap_private.14* %5) #3, !dbg !8404
  ret i1 %11, !dbg !8404

; <label>:14:                                     ; preds = %2
  %15 = landingpad { i8*, i32 }
          cleanup, !dbg !8406
  %16 = extractvalue { i8*, i32 } %15, 0, !dbg !8406
  store i8* %16, i8** %6, align 4, !dbg !8406
  %17 = extractvalue { i8*, i32 } %15, 1, !dbg !8406
  store i32 %17, i32* %7, align 4, !dbg !8406
  %18 = call %class.ap_private.14* @_ZN10ap_privateILi32ELb1ELb1EED2Ev(%class.ap_private.14* %5) #3, !dbg !8406
  br label %19, !dbg !8406

; <label>:19:                                     ; preds = %14
  %20 = load i8*, i8** %6, align 4, !dbg !8408
  %21 = load i32, i32* %7, align 4, !dbg !8408
  %22 = insertvalue { i8*, i32 } undef, i8* %20, 0, !dbg !8408
  %23 = insertvalue { i8*, i32 } %22, i32 %21, 1, !dbg !8408
  resume { i8*, i32 } %23, !dbg !8408
}

; Function Attrs: inlinehint
define linkonce_odr zeroext i1 @_ZeqILi2ELb0EEbRK10ap_privateIXT_EXT0_EXleT_Li64EEEi(%class.ap_private.2* dereferenceable(1), i32) #6 comdat personality i8* bitcast (i32 (...)* @__gxx_personality_v0 to i8*) !dbg !8410 !xidane.fname !8413 !xidane.function_declaration_type !8414 !xidane.function_declaration_filename !8367 {
  %3 = alloca %class.ap_private.2*, align 4
  %4 = alloca i32, align 4
  %5 = alloca %class.ap_private.14, align 4
  %6 = alloca i8*
  %7 = alloca i32
  store %class.ap_private.2* %0, %class.ap_private.2** %3, align 4
  call void @llvm.dbg.declare(metadata %class.ap_private.2** %3, metadata !8415, metadata !8082), !dbg !8416
  store i32 %1, i32* %4, align 4
  call void @llvm.dbg.declare(metadata i32* %4, metadata !8417, metadata !8082), !dbg !8416
  %8 = load %class.ap_private.2*, %class.ap_private.2** %3, align 4, !dbg !8416
  %9 = load i32, i32* %4, align 4, !dbg !8416
  %10 = call %class.ap_private.14* @_ZN10ap_privateILi32ELb1ELb1EEC2Ei(%class.ap_private.14* %5, i32 %9), !dbg !8416
  %11 = invoke zeroext i1 @_ZNK10ap_privateILi2ELb0ELb1EEeqILi32ELb1EEEbRKS_IXT_EXT0_EXleT_Li64EEE(%class.ap_private.2* %8, %class.ap_private.14* dereferenceable(4) %5)
          to label %12 unwind label %14, !dbg !8416

; <label>:12:                                     ; preds = %2
  %13 = call %class.ap_private.14* @_ZN10ap_privateILi32ELb1ELb1EED2Ev(%class.ap_private.14* %5) #3, !dbg !8418
  ret i1 %11, !dbg !8418

; <label>:14:                                     ; preds = %2
  %15 = landingpad { i8*, i32 }
          cleanup, !dbg !8420
  %16 = extractvalue { i8*, i32 } %15, 0, !dbg !8420
  store i8* %16, i8** %6, align 4, !dbg !8420
  %17 = extractvalue { i8*, i32 } %15, 1, !dbg !8420
  store i32 %17, i32* %7, align 4, !dbg !8420
  %18 = call %class.ap_private.14* @_ZN10ap_privateILi32ELb1ELb1EED2Ev(%class.ap_private.14* %5) #3, !dbg !8420
  br label %19, !dbg !8420

; <label>:19:                                     ; preds = %14
  %20 = load i8*, i8** %6, align 4, !dbg !8422
  %21 = load i32, i32* %7, align 4, !dbg !8422
  %22 = insertvalue { i8*, i32 } undef, i8* %20, 0, !dbg !8422
  %23 = insertvalue { i8*, i32 } %22, i32 %21, 1, !dbg !8422
  resume { i8*, i32 } %23, !dbg !8422
}

define i32 @_Z20find_conv_batch_sizejjjj(i32, i32, i32, i32) #0 !dbg !8424 !xidane.fname !8427 !xidane.function_declaration_type !8428 !xidane.function_declaration_filename !8094 {
  %5 = alloca i32, align 4
  %6 = alloca i32, align 4
  %7 = alloca i32, align 4
  %8 = alloca i32, align 4
  %9 = alloca i32, align 4
  %10 = alloca i32, align 4
  %11 = alloca i32, align 4
  %12 = alloca i32, align 4
  store i32 %0, i32* %5, align 4
  call void @llvm.dbg.declare(metadata i32* %5, metadata !8429, metadata !8082), !dbg !8430
  store i32 %1, i32* %6, align 4
  call void @llvm.dbg.declare(metadata i32* %6, metadata !8431, metadata !8082), !dbg !8432
  store i32 %2, i32* %7, align 4
  call void @llvm.dbg.declare(metadata i32* %7, metadata !8433, metadata !8082), !dbg !8434
  store i32 %3, i32* %8, align 4
  call void @llvm.dbg.declare(metadata i32* %8, metadata !8435, metadata !8082), !dbg !8436
  call void @llvm.dbg.declare(metadata i32* %9, metadata !8437, metadata !8082), !dbg !8438
  %13 = load i32, i32* %5, align 4, !dbg !8439
  %14 = load i32, i32* %5, align 4, !dbg !8440
  %15 = mul i32 %13, %14, !dbg !8441
  %16 = udiv i32 131072, %15, !dbg !8442
  store i32 %16, i32* %9, align 4, !dbg !8438
  call void @llvm.dbg.declare(metadata i32* %10, metadata !8443, metadata !8082), !dbg !8444
  %17 = load i32, i32* %7, align 4, !dbg !8445
  %18 = udiv i32 32774, %17, !dbg !8446
  store i32 %18, i32* %10, align 4, !dbg !8444
  call void @llvm.dbg.declare(metadata i32* %11, metadata !8447, metadata !8082), !dbg !8448
  store i32 256, i32* %11, align 4, !dbg !8448
  call void @llvm.dbg.declare(metadata i32* %12, metadata !8449, metadata !8082), !dbg !8450
  %19 = load i32, i32* %6, align 4, !dbg !8451
  %20 = load i32, i32* %6, align 4, !dbg !8452
  %21 = mul i32 %19, %20, !dbg !8453
  %22 = udiv i32 131072, %21, !dbg !8454
  store i32 %22, i32* %12, align 4, !dbg !8450
  %23 = load i32, i32* %12, align 4, !dbg !8455
  %24 = load i32, i32* %8, align 4, !dbg !8457
  %25 = icmp ugt i32 %23, %24, !dbg !8458
  br i1 %25, label %26, label %28, !dbg !8459

; <label>:26:                                     ; preds = %4
  %27 = load i32, i32* %8, align 4, !dbg !8460
  store i32 %27, i32* %12, align 4, !dbg !8462
  br label %28, !dbg !8463

; <label>:28:                                     ; preds = %26, %4
  %29 = load i32, i32* %12, align 4, !dbg !8464
  %30 = load i32, i32* %10, align 4, !dbg !8466
  %31 = icmp ugt i32 %29, %30, !dbg !8467
  br i1 %31, label %32, label %34, !dbg !8468

; <label>:32:                                     ; preds = %28
  %33 = load i32, i32* %10, align 4, !dbg !8469
  store i32 %33, i32* %12, align 4, !dbg !8471
  br label %34, !dbg !8472

; <label>:34:                                     ; preds = %32, %28
  %35 = load i32, i32* %12, align 4, !dbg !8473
  %36 = icmp ugt i32 %35, 256, !dbg !8475
  br i1 %36, label %37, label %38, !dbg !8476

; <label>:37:                                     ; preds = %34
  store i32 256, i32* %12, align 4, !dbg !8477
  br label %38, !dbg !8479

; <label>:38:                                     ; preds = %37, %34
  br label %39, !dbg !8480

; <label>:39:                                     ; preds = %44, %38
  %40 = load i32, i32* %8, align 4, !dbg !8481
  %41 = load i32, i32* %12, align 4, !dbg !8483
  %42 = urem i32 %40, %41, !dbg !8484
  %43 = icmp ne i32 %42, 0, !dbg !8485
  br i1 %43, label %44, label %47, !dbg !8486

; <label>:44:                                     ; preds = %39
  %45 = load i32, i32* %12, align 4, !dbg !8487
  %46 = add i32 %45, -1, !dbg !8487
  store i32 %46, i32* %12, align 4, !dbg !8487
  br label %39, !dbg !8489, !llvm.loop !8491

; <label>:47:                                     ; preds = %39
  %48 = load i32, i32* %12, align 4, !dbg !8492
  %49 = icmp ne i32 %48, 0, !dbg !8492
  br i1 %49, label %50, label %51, !dbg !8492

; <label>:50:                                     ; preds = %47
  br label %53, !dbg !8493

; <label>:51:                                     ; preds = %47
  call void @__assert_func(i8* getelementptr inbounds ([92 x i8], [92 x i8]* @.str.10, i32 0, i32 0), i32 159, i8* getelementptr inbounds ([90 x i8], [90 x i8]* @__PRETTY_FUNCTION__._Z20find_conv_batch_sizejjjj, i32 0, i32 0), i8* getelementptr inbounds ([20 x i8], [20 x i8]* @.str.13, i32 0, i32 0)) #14, !dbg !8494
  unreachable, !dbg !8494
                                                  ; No predecessors!
  br label %53, !dbg !8495

; <label>:53:                                     ; preds = %52, %50
  %54 = load i32, i32* %7, align 4, !dbg !8497
  %55 = load i32, i32* %9, align 4, !dbg !8497
  %56 = icmp ule i32 %54, %55, !dbg !8497
  br i1 %56, label %57, label %58, !dbg !8497

; <label>:57:                                     ; preds = %53
  br label %60, !dbg !8498

; <label>:58:                                     ; preds = %53
  call void @__assert_func(i8* getelementptr inbounds ([92 x i8], [92 x i8]* @.str.10, i32 0, i32 0), i32 167, i8* getelementptr inbounds ([90 x i8], [90 x i8]* @__PRETTY_FUNCTION__._Z20find_conv_batch_sizejjjj, i32 0, i32 0), i8* getelementptr inbounds ([24 x i8], [24 x i8]* @.str.15, i32 0, i32 0)) #14, !dbg !8499
  unreachable, !dbg !8499
                                                  ; No predecessors!
  br label %60, !dbg !8500

; <label>:60:                                     ; preds = %59, %57
  %61 = load i32, i32* %10, align 4, !dbg !8501
  %62 = icmp ne i32 %61, 0, !dbg !8501
  br i1 %62, label %63, label %64, !dbg !8501

; <label>:63:                                     ; preds = %60
  br label %66, !dbg !8502

; <label>:64:                                     ; preds = %60
  call void @__assert_func(i8* getelementptr inbounds ([92 x i8], [92 x i8]* @.str.10, i32 0, i32 0), i32 168, i8* getelementptr inbounds ([90 x i8], [90 x i8]* @__PRETTY_FUNCTION__._Z20find_conv_batch_sizejjjj, i32 0, i32 0), i8* getelementptr inbounds ([14 x i8], [14 x i8]* @.str.16, i32 0, i32 0)) #14, !dbg !8503
  unreachable, !dbg !8503
                                                  ; No predecessors!
  br label %66, !dbg !8504

; <label>:66:                                     ; preds = %65, %63
  %67 = load i32, i32* %12, align 4, !dbg !8505
  ret i32 %67, !dbg !8506
}

define i32 @_Z21find_dense_batch_sizejj(i32, i32) #0 !dbg !8507 !xidane.fname !8510 !xidane.function_declaration_type !8511 !xidane.function_declaration_filename !8094 {
  %3 = alloca i32, align 4
  %4 = alloca i32, align 4
  %5 = alloca i32, align 4
  %6 = alloca i32, align 4
  %7 = alloca i32, align 4
  store i32 %0, i32* %3, align 4
  call void @llvm.dbg.declare(metadata i32* %3, metadata !8512, metadata !8082), !dbg !8513
  store i32 %1, i32* %4, align 4
  call void @llvm.dbg.declare(metadata i32* %4, metadata !8514, metadata !8082), !dbg !8515
  %8 = load i32, i32* %3, align 4, !dbg !8516
  %9 = icmp uge i32 299648, %8, !dbg !8516
  br i1 %9, label %10, label %11, !dbg !8516

; <label>:10:                                     ; preds = %2
  br label %13, !dbg !8517

; <label>:11:                                     ; preds = %2
  call void @__assert_func(i8* getelementptr inbounds ([92 x i8], [92 x i8]* @.str.10, i32 0, i32 0), i32 175, i8* getelementptr inbounds ([63 x i8], [63 x i8]* @__PRETTY_FUNCTION__._Z21find_dense_batch_sizejj, i32 0, i32 0), i8* getelementptr inbounds ([31 x i8], [31 x i8]* @.str.17, i32 0, i32 0)) #14, !dbg !8519
  unreachable, !dbg !8519
                                                  ; No predecessors!
  br label %13, !dbg !8521

; <label>:13:                                     ; preds = %12, %10
  call void @llvm.dbg.declare(metadata i32* %5, metadata !8523, metadata !8082), !dbg !8524
  %14 = load i32, i32* %3, align 4, !dbg !8525
  %15 = udiv i32 299648, %14, !dbg !8526
  store i32 %15, i32* %5, align 4, !dbg !8524
  call void @llvm.dbg.declare(metadata i32* %6, metadata !8527, metadata !8082), !dbg !8528
  store i32 256, i32* %6, align 4, !dbg !8528
  call void @llvm.dbg.declare(metadata i32* %7, metadata !8529, metadata !8082), !dbg !8530
  store i32 131072, i32* %7, align 4, !dbg !8530
  %16 = load i32, i32* %7, align 4, !dbg !8531
  %17 = load i32, i32* %4, align 4, !dbg !8533
  %18 = icmp ugt i32 %16, %17, !dbg !8534
  br i1 %18, label %19, label %21, !dbg !8535

; <label>:19:                                     ; preds = %13
  %20 = load i32, i32* %4, align 4, !dbg !8536
  store i32 %20, i32* %7, align 4, !dbg !8538
  br label %21, !dbg !8539

; <label>:21:                                     ; preds = %19, %13
  %22 = load i32, i32* %7, align 4, !dbg !8540
  %23 = load i32, i32* %5, align 4, !dbg !8542
  %24 = icmp ugt i32 %22, %23, !dbg !8543
  br i1 %24, label %25, label %27, !dbg !8544

; <label>:25:                                     ; preds = %21
  %26 = load i32, i32* %5, align 4, !dbg !8545
  store i32 %26, i32* %7, align 4, !dbg !8547
  br label %27, !dbg !8548

; <label>:27:                                     ; preds = %25, %21
  %28 = load i32, i32* %7, align 4, !dbg !8549
  %29 = icmp ugt i32 %28, 256, !dbg !8551
  br i1 %29, label %30, label %31, !dbg !8552

; <label>:30:                                     ; preds = %27
  store i32 256, i32* %7, align 4, !dbg !8553
  br label %31, !dbg !8555

; <label>:31:                                     ; preds = %30, %27
  br label %32, !dbg !8556

; <label>:32:                                     ; preds = %37, %31
  %33 = load i32, i32* %4, align 4, !dbg !8557
  %34 = load i32, i32* %7, align 4, !dbg !8558
  %35 = urem i32 %33, %34, !dbg !8559
  %36 = icmp ne i32 %35, 0, !dbg !8560
  br i1 %36, label %37, label %40, !dbg !8561

; <label>:37:                                     ; preds = %32
  %38 = load i32, i32* %7, align 4, !dbg !8562
  %39 = add i32 %38, -1, !dbg !8562
  store i32 %39, i32* %7, align 4, !dbg !8562
  br label %32, !dbg !8564, !llvm.loop !8565

; <label>:40:                                     ; preds = %32
  %41 = load i32, i32* %7, align 4, !dbg !8566
  %42 = icmp ne i32 %41, 0, !dbg !8566
  br i1 %42, label %43, label %44, !dbg !8566

; <label>:43:                                     ; preds = %40
  br label %46, !dbg !8567

; <label>:44:                                     ; preds = %40
  call void @__assert_func(i8* getelementptr inbounds ([92 x i8], [92 x i8]* @.str.10, i32 0, i32 0), i32 187, i8* getelementptr inbounds ([63 x i8], [63 x i8]* @__PRETTY_FUNCTION__._Z21find_dense_batch_sizejj, i32 0, i32 0), i8* getelementptr inbounds ([20 x i8], [20 x i8]* @.str.18, i32 0, i32 0)) #14, !dbg !8568
  unreachable, !dbg !8568
                                                  ; No predecessors!
  br label %46, !dbg !8569

; <label>:46:                                     ; preds = %45, %43
  %47 = load i32, i32* %7, align 4, !dbg !8570
  ret i32 %47, !dbg !8571
}

define linkonce_odr void @_ZNSt6vectorI9AccelInfoSaIS0_EE6resizeEj(%"class.std::vector"*, i32) #0 comdat align 2 !dbg !8572 !xidane.fname !8573 !xidane.function_declaration_type !8574 !xidane.function_declaration_filename !8575 {
  %3 = alloca %"class.std::vector"*, align 4
  %4 = alloca i32, align 4
  store %"class.std::vector"* %0, %"class.std::vector"** %3, align 4
  call void @llvm.dbg.declare(metadata %"class.std::vector"** %3, metadata !8576, metadata !8082), !dbg !8578
  store i32 %1, i32* %4, align 4
  call void @llvm.dbg.declare(metadata i32* %4, metadata !8579, metadata !8082), !dbg !8580
  %5 = load %"class.std::vector"*, %"class.std::vector"** %3, align 4
  %6 = load i32, i32* %4, align 4, !dbg !8581
  %7 = call i32 @_ZNKSt6vectorI9AccelInfoSaIS0_EE4sizeEv(%"class.std::vector"* %5) #3, !dbg !8583
  %8 = icmp ugt i32 %6, %7, !dbg !8584
  br i1 %8, label %9, label %13, !dbg !8585

; <label>:9:                                      ; preds = %2
  %10 = load i32, i32* %4, align 4, !dbg !8586
  %11 = call i32 @_ZNKSt6vectorI9AccelInfoSaIS0_EE4sizeEv(%"class.std::vector"* %5) #3, !dbg !8587
  %12 = sub i32 %10, %11, !dbg !8588
  call void @_ZNSt6vectorI9AccelInfoSaIS0_EE17_M_default_appendEj(%"class.std::vector"* %5, i32 %12), !dbg !8589
  br label %25, !dbg !8591

; <label>:13:                                     ; preds = %2
  %14 = load i32, i32* %4, align 4, !dbg !8592
  %15 = call i32 @_ZNKSt6vectorI9AccelInfoSaIS0_EE4sizeEv(%"class.std::vector"* %5) #3, !dbg !8594
  %16 = icmp ult i32 %14, %15, !dbg !8595
  br i1 %16, label %17, label %24, !dbg !8596

; <label>:17:                                     ; preds = %13
  %18 = bitcast %"class.std::vector"* %5 to %"struct.std::_Vector_base"*, !dbg !8597
  %19 = getelementptr inbounds %"struct.std::_Vector_base", %"struct.std::_Vector_base"* %18, i32 0, i32 0, !dbg !8597
  %20 = getelementptr inbounds %"struct.std::_Vector_base<AccelInfo, std::allocator<AccelInfo> >::_Vector_impl", %"struct.std::_Vector_base<AccelInfo, std::allocator<AccelInfo> >::_Vector_impl"* %19, i32 0, i32 0, !dbg !8598
  %21 = load %struct.AccelInfo*, %struct.AccelInfo** %20, align 4, !dbg !8598
  %22 = load i32, i32* %4, align 4, !dbg !8599
  %23 = getelementptr inbounds %struct.AccelInfo, %struct.AccelInfo* %21, i32 %22, !dbg !8600
  call void @_ZNSt6vectorI9AccelInfoSaIS0_EE15_M_erase_at_endEPS0_(%"class.std::vector"* %5, %struct.AccelInfo* %23) #3, !dbg !8601
  br label %24, !dbg !8601

; <label>:24:                                     ; preds = %17, %13
  br label %25

; <label>:25:                                     ; preds = %24, %9
  ret void, !dbg !8602
}

; Function Attrs: inlinehint
define linkonce_odr void @_ZN10ap_privateILi3ELb0ELb1EEixEi(%struct.ap_bit_ref* noalias sret, %class.ap_private.0*, i32) #6 comdat align 2 !dbg !8603 !xidane.fname !8604 !xidane.function_declaration_type !8605 !xidane.function_declaration_filename !8347 {
  %4 = alloca %class.ap_private.0*, align 4
  %5 = alloca i32, align 4
  store %class.ap_private.0* %1, %class.ap_private.0** %4, align 4
  call void @llvm.dbg.declare(metadata %class.ap_private.0** %4, metadata !8606, metadata !8082), !dbg !8607
  store i32 %2, i32* %5, align 4
  call void @llvm.dbg.declare(metadata i32* %5, metadata !8608, metadata !8082), !dbg !8609
  %6 = load %class.ap_private.0*, %class.ap_private.0** %4, align 4
  %7 = load i32, i32* %5, align 4, !dbg !8610
  %8 = call %struct.ap_bit_ref* @_ZN10ap_bit_refILi3ELb0EEC2ER10ap_privateILi3ELb0ELb1EEi(%struct.ap_bit_ref* %0, %class.ap_private.0* dereferenceable(1) %6, i32 %7), !dbg !8611
  ret void, !dbg !8612
}

; Function Attrs: inlinehint nounwind
define linkonce_odr dereferenceable(8) %struct.ap_bit_ref* @_ZN10ap_bit_refILi3ELb0EEaSEy(%struct.ap_bit_ref*, i64) #7 comdat align 2 !dbg !8613 !xidane.fname !8614 !xidane.function_declaration_type !8615 !xidane.function_declaration_filename !8367 {
  %3 = alloca %struct.ap_bit_ref*, align 4
  %4 = alloca i64, align 8
  store %struct.ap_bit_ref* %0, %struct.ap_bit_ref** %3, align 4
  call void @llvm.dbg.declare(metadata %struct.ap_bit_ref** %3, metadata !8616, metadata !8082), !dbg !8618
  store i64 %1, i64* %4, align 8
  call void @llvm.dbg.declare(metadata i64* %4, metadata !8619, metadata !8082), !dbg !8620
  %5 = load %struct.ap_bit_ref*, %struct.ap_bit_ref** %3, align 4
  %6 = load i64, i64* %4, align 8, !dbg !8621
  %7 = icmp ne i64 %6, 0, !dbg !8621
  br i1 %7, label %8, label %14, !dbg !8623

; <label>:8:                                      ; preds = %2
  %9 = getelementptr inbounds %struct.ap_bit_ref, %struct.ap_bit_ref* %5, i32 0, i32 0, !dbg !8624
  %10 = load %class.ap_private.0*, %class.ap_private.0** %9, align 4, !dbg !8624
  %11 = getelementptr inbounds %struct.ap_bit_ref, %struct.ap_bit_ref* %5, i32 0, i32 1, !dbg !8625
  %12 = load i32, i32* %11, align 4, !dbg !8625
  %13 = call dereferenceable(1) %class.ap_private.0* @_ZN10ap_privateILi3ELb0ELb1EE3setEj(%class.ap_private.0* %10, i32 %12), !dbg !8626
  br label %20, !dbg !8624

; <label>:14:                                     ; preds = %2
  %15 = getelementptr inbounds %struct.ap_bit_ref, %struct.ap_bit_ref* %5, i32 0, i32 0, !dbg !8627
  %16 = load %class.ap_private.0*, %class.ap_private.0** %15, align 4, !dbg !8627
  %17 = getelementptr inbounds %struct.ap_bit_ref, %struct.ap_bit_ref* %5, i32 0, i32 1, !dbg !8628
  %18 = load i32, i32* %17, align 4, !dbg !8628
  %19 = call dereferenceable(1) %class.ap_private.0* @_ZN10ap_privateILi3ELb0ELb1EE5clearEj(%class.ap_private.0* %16, i32 %18), !dbg !8629
  br label %20

; <label>:20:                                     ; preds = %14, %8
  ret %struct.ap_bit_ref* %5, !dbg !8630
}

; Function Attrs: nounwind
define linkonce_odr dereferenceable(20) %struct.AccelInfo* @_ZNSt6vectorI9AccelInfoSaIS0_EEixEj(%"class.std::vector"*, i32) #8 comdat align 2 !dbg !8631 !xidane.fname !8604 !xidane.function_declaration_type !8632 !xidane.function_declaration_filename !8575 {
  %3 = alloca %"class.std::vector"*, align 4
  %4 = alloca i32, align 4
  store %"class.std::vector"* %0, %"class.std::vector"** %3, align 4
  call void @llvm.dbg.declare(metadata %"class.std::vector"** %3, metadata !8633, metadata !8082), !dbg !8634
  store i32 %1, i32* %4, align 4
  call void @llvm.dbg.declare(metadata i32* %4, metadata !8635, metadata !8082), !dbg !8636
  %5 = load %"class.std::vector"*, %"class.std::vector"** %3, align 4
  %6 = bitcast %"class.std::vector"* %5 to %"struct.std::_Vector_base"*, !dbg !8637
  %7 = getelementptr inbounds %"struct.std::_Vector_base", %"struct.std::_Vector_base"* %6, i32 0, i32 0, !dbg !8637
  %8 = getelementptr inbounds %"struct.std::_Vector_base<AccelInfo, std::allocator<AccelInfo> >::_Vector_impl", %"struct.std::_Vector_base<AccelInfo, std::allocator<AccelInfo> >::_Vector_impl"* %7, i32 0, i32 0, !dbg !8638
  %9 = load %struct.AccelInfo*, %struct.AccelInfo** %8, align 4, !dbg !8638
  %10 = load i32, i32* %4, align 4, !dbg !8639
  %11 = getelementptr inbounds %struct.AccelInfo, %struct.AccelInfo* %9, i32 %10, !dbg !8640
  ret %struct.AccelInfo* %11, !dbg !8641
}

; Function Attrs: inlinehint
define linkonce_odr dereferenceable(1) %class.ap_uint* @_ZN7ap_uintILi3EEaSERKS0_(%class.ap_uint*, %class.ap_uint* dereferenceable(1)) #6 comdat align 2 !dbg !8642 !xidane.fname !8614 !xidane.function_declaration_type !8643 !xidane.function_declaration_filename !8331 {
  %3 = alloca %class.ap_uint*, align 4
  %4 = alloca %class.ap_uint*, align 4
  store %class.ap_uint* %0, %class.ap_uint** %3, align 4
  call void @llvm.dbg.declare(metadata %class.ap_uint** %3, metadata !8644, metadata !8082), !dbg !8645
  store %class.ap_uint* %1, %class.ap_uint** %4, align 4
  call void @llvm.dbg.declare(metadata %class.ap_uint** %4, metadata !8646, metadata !8082), !dbg !8647
  %5 = load %class.ap_uint*, %class.ap_uint** %3, align 4
  %6 = bitcast %class.ap_uint* %5 to %class.ap_private.0*, !dbg !8648
  %7 = load %class.ap_uint*, %class.ap_uint** %4, align 4, !dbg !8649
  %8 = bitcast %class.ap_uint* %7 to %class.ap_private.0*, !dbg !8650
  %9 = call dereferenceable(1) %class.ap_private.0* @_ZN10ap_privateILi3ELb0ELb1EEaSERKS0_(%class.ap_private.0* %6, %class.ap_private.0* dereferenceable(1) %8), !dbg !8648
  ret %class.ap_uint* %5, !dbg !8651
}

; Function Attrs: inlinehint nounwind
define linkonce_odr dereferenceable(1) %class.ap_uint.1* @_ZN7ap_uintILi2EEaSERKS0_(%class.ap_uint.1*, %class.ap_uint.1* dereferenceable(1)) #7 comdat align 2 !dbg !8652 !xidane.fname !8614 !xidane.function_declaration_type !8653 !xidane.function_declaration_filename !8331 {
  %3 = alloca %class.ap_uint.1*, align 4
  %4 = alloca %class.ap_uint.1*, align 4
  store %class.ap_uint.1* %0, %class.ap_uint.1** %3, align 4
  call void @llvm.dbg.declare(metadata %class.ap_uint.1** %3, metadata !8654, metadata !8082), !dbg !8655
  store %class.ap_uint.1* %1, %class.ap_uint.1** %4, align 4
  call void @llvm.dbg.declare(metadata %class.ap_uint.1** %4, metadata !8656, metadata !8082), !dbg !8657
  %5 = load %class.ap_uint.1*, %class.ap_uint.1** %3, align 4
  %6 = bitcast %class.ap_uint.1* %5 to %class.ap_private.2*, !dbg !8658
  %7 = load %class.ap_uint.1*, %class.ap_uint.1** %4, align 4, !dbg !8659
  %8 = bitcast %class.ap_uint.1* %7 to %class.ap_private.2*, !dbg !8660
  %9 = call dereferenceable(1) %class.ap_private.2* @_ZN10ap_privateILi2ELb0ELb1EEaSERKS0_(%class.ap_private.2* %6, %class.ap_private.2* dereferenceable(1) %8), !dbg !8658
  ret %class.ap_uint.1* %5, !dbg !8661
}

; Function Attrs: inlinehint
define linkonce_odr void @_ZplILi1ELb0EEN10ap_privateIXT_EXT0_EXleT_Li64EEE5RTypeIXLi32EEXLb1EEE4plusERKS1_i(%class.ap_private.6* noalias sret, %class.ap_private.4* dereferenceable(1), i32) #6 comdat personality i8* bitcast (i32 (...)* @__gxx_personality_v0 to i8*) !dbg !8662 !xidane.fname !8665 !xidane.function_declaration_type !8666 !xidane.function_declaration_filename !8367 {
  %4 = alloca %class.ap_private.4*, align 4
  %5 = alloca i32, align 4
  %6 = alloca %class.ap_private.14, align 4
  %7 = alloca i8*
  %8 = alloca i32
  store %class.ap_private.4* %1, %class.ap_private.4** %4, align 4
  call void @llvm.dbg.declare(metadata %class.ap_private.4** %4, metadata !8667, metadata !8082), !dbg !8668
  store i32 %2, i32* %5, align 4
  call void @llvm.dbg.declare(metadata i32* %5, metadata !8669, metadata !8082), !dbg !8668
  %9 = load %class.ap_private.4*, %class.ap_private.4** %4, align 4, !dbg !8668
  %10 = load i32, i32* %5, align 4, !dbg !8668
  %11 = call %class.ap_private.14* @_ZN10ap_privateILi32ELb1ELb1EEC2Ei(%class.ap_private.14* %6, i32 %10), !dbg !8668
  invoke void @_ZNK10ap_privateILi1ELb0ELb1EEplILi32ELb1EEENS0_5RTypeIXT_EXT0_EE4plusERKS_IXT_EXT0_EXleT_Li64EEE(%class.ap_private.6* sret %0, %class.ap_private.4* %9, %class.ap_private.14* dereferenceable(4) %6)
          to label %12 unwind label %14, !dbg !8668

; <label>:12:                                     ; preds = %3
  %13 = call %class.ap_private.14* @_ZN10ap_privateILi32ELb1ELb1EED2Ev(%class.ap_private.14* %6) #3, !dbg !8670
  ret void, !dbg !8670

; <label>:14:                                     ; preds = %3
  %15 = landingpad { i8*, i32 }
          cleanup, !dbg !8672
  %16 = extractvalue { i8*, i32 } %15, 0, !dbg !8672
  store i8* %16, i8** %7, align 4, !dbg !8672
  %17 = extractvalue { i8*, i32 } %15, 1, !dbg !8672
  store i32 %17, i32* %8, align 4, !dbg !8672
  %18 = call %class.ap_private.14* @_ZN10ap_privateILi32ELb1ELb1EED2Ev(%class.ap_private.14* %6) #3, !dbg !8672
  br label %19, !dbg !8672

; <label>:19:                                     ; preds = %14
  %20 = load i8*, i8** %7, align 4, !dbg !8674
  %21 = load i32, i32* %8, align 4, !dbg !8674
  %22 = insertvalue { i8*, i32 } undef, i8* %20, 0, !dbg !8674
  %23 = insertvalue { i8*, i32 } %22, i32 %21, 1, !dbg !8674
  resume { i8*, i32 } %23, !dbg !8674
}

; Function Attrs: inlinehint
define linkonce_odr %class.ap_uint.1* @_ZN7ap_uintILi2EEC2ILi33ELb1EEERK10ap_privateIXT_EXT0_EXleT_Li64EEE(%class.ap_uint.1* returned, %class.ap_private.6* dereferenceable(8)) unnamed_addr #6 comdat align 2 !dbg !8676 !xidane.fname !8682 !xidane.function_declaration_type !8683 !xidane.function_declaration_filename !8331 {
  %3 = alloca %class.ap_uint.1*, align 4
  %4 = alloca %class.ap_private.6*, align 4
  store %class.ap_uint.1* %0, %class.ap_uint.1** %3, align 4
  call void @llvm.dbg.declare(metadata %class.ap_uint.1** %3, metadata !8684, metadata !8082), !dbg !8685
  store %class.ap_private.6* %1, %class.ap_private.6** %4, align 4
  call void @llvm.dbg.declare(metadata %class.ap_private.6** %4, metadata !8686, metadata !8082), !dbg !8687
  %5 = load %class.ap_uint.1*, %class.ap_uint.1** %3, align 4
  %6 = bitcast %class.ap_uint.1* %5 to %class.ap_private.2*, !dbg !8688
  %7 = load %class.ap_private.6*, %class.ap_private.6** %4, align 4, !dbg !8689
  %8 = call %class.ap_private.2* @_ZN10ap_privateILi2ELb0ELb1EEC2ILi33ELb1ELb1EEERKS_IXT_EXT0_EXT1_EE(%class.ap_private.2* %6, %class.ap_private.6* dereferenceable(8) %7), !dbg !8690
  ret %class.ap_uint.1* %5, !dbg !8691
}

; Function Attrs: inlinehint nounwind
define linkonce_odr %class.ap_uint.1* @_ZN7ap_uintILi2EED2Ev(%class.ap_uint.1* returned) unnamed_addr #7 comdat align 2 !dbg !8692 !xidane.fname !8694 !xidane.function_declaration_type !8034 !xidane.function_declaration_filename !8331 {
  %2 = alloca %class.ap_uint.1*, align 4
  store %class.ap_uint.1* %0, %class.ap_uint.1** %2, align 4
  call void @llvm.dbg.declare(metadata %class.ap_uint.1** %2, metadata !8695, metadata !8082), !dbg !8696
  %3 = load %class.ap_uint.1*, %class.ap_uint.1** %2, align 4
  %4 = bitcast %class.ap_uint.1* %3 to %class.ap_private.2*, !dbg !8697
  %5 = call %class.ap_private.2* @_ZN10ap_privateILi2ELb0ELb1EED2Ev(%class.ap_private.2* %4) #3, !dbg !8697
  ret %class.ap_uint.1* %3, !dbg !8699
}

; Function Attrs: inlinehint nounwind
define linkonce_odr %class.ap_private.6* @_ZN10ap_privateILi33ELb1ELb1EED2Ev(%class.ap_private.6* returned) unnamed_addr #7 comdat align 2 personality i8* bitcast (i32 (...)* @__gxx_personality_v0 to i8*) !dbg !8700 !xidane.fname !8701 !xidane.function_declaration_type !8034 !xidane.function_declaration_filename !8347 {
  %2 = alloca %class.ap_private.6*, align 4
  store %class.ap_private.6* %0, %class.ap_private.6** %2, align 4
  call void @llvm.dbg.declare(metadata %class.ap_private.6** %2, metadata !8702, metadata !8082), !dbg !8704
  %3 = load %class.ap_private.6*, %class.ap_private.6** %2, align 4
  invoke void @_ZN10ap_privateILi33ELb1ELb1EE12check_canaryEv(%class.ap_private.6* %3)
          to label %4 unwind label %5, !dbg !8705

; <label>:4:                                      ; preds = %1
  ret %class.ap_private.6* %3, !dbg !8707

; <label>:5:                                      ; preds = %1
  %6 = landingpad { i8*, i32 }
          catch i8* null, !dbg !8709
  %7 = extractvalue { i8*, i32 } %6, 0, !dbg !8709
  call void @__clang_call_terminate(i8* %7) #11, !dbg !8709
  unreachable, !dbg !8709
}

define void @_Z18load_conv1_weightsP6ap_intILi64EES1_jj(%class.ap_int*, %class.ap_int*, i32, i32) #0 personality i8* bitcast (i32 (...)* @__gxx_personality_v0 to i8*) !dbg !8711 !xidane.fname !8714 !xidane.function_declaration_type !8715 !xidane.function_declaration_filename !8094 {
  %5 = alloca %class.ap_int*, align 4
  %6 = alloca %class.ap_int*, align 4
  %7 = alloca i32, align 4
  %8 = alloca i32, align 4
  %9 = alloca i32, align 4
  %10 = alloca i32, align 4
  %11 = alloca i32, align 4
  %12 = alloca i32, align 4
  %13 = alloca %class.ap_int, align 8
  %14 = alloca %class.ap_private, align 8
  %15 = alloca i8*
  %16 = alloca i32
  %17 = alloca %class.ap_int, align 8
  %18 = alloca i32, align 4
  %19 = alloca i32, align 4
  %20 = alloca %class.ap_int, align 8
  %21 = alloca %class.ap_private, align 8
  %22 = alloca %struct.ap_range_ref.11, align 4
  %23 = alloca %struct.ap_range_ref.11, align 4
  %24 = alloca %class.ap_int, align 8
  %25 = alloca %class.ap_private, align 8
  store %class.ap_int* %0, %class.ap_int** %5, align 4
  call void @llvm.dbg.declare(metadata %class.ap_int** %5, metadata !8716, metadata !8082), !dbg !8717
  store %class.ap_int* %1, %class.ap_int** %6, align 4
  call void @llvm.dbg.declare(metadata %class.ap_int** %6, metadata !8718, metadata !8082), !dbg !8719
  store i32 %2, i32* %7, align 4
  call void @llvm.dbg.declare(metadata i32* %7, metadata !8720, metadata !8082), !dbg !8721
  store i32 %3, i32* %8, align 4
  call void @llvm.dbg.declare(metadata i32* %8, metadata !8722, metadata !8082), !dbg !8723
  call void @llvm.dbg.declare(metadata i32* %9, metadata !8724, metadata !8082), !dbg !8725
  store i32 3, i32* %9, align 4, !dbg !8725
  call void @llvm.dbg.declare(metadata i32* %10, metadata !8726, metadata !8082), !dbg !8727
  %26 = load i32, i32* %7, align 4, !dbg !8728
  %27 = mul i32 %26, 3, !dbg !8729
  store i32 %27, i32* %10, align 4, !dbg !8727
  call void @llvm.dbg.declare(metadata i32* %11, metadata !8730, metadata !8082), !dbg !8731
  %28 = load i32, i32* %10, align 4, !dbg !8732
  %29 = udiv i32 %28, 7, !dbg !8733
  store i32 %29, i32* %11, align 4, !dbg !8731
  call void @llvm.dbg.declare(metadata i32* %12, metadata !8734, metadata !8082), !dbg !8735
  %30 = load i32, i32* %10, align 4, !dbg !8736
  %31 = urem i32 %30, 7, !dbg !8737
  store i32 %31, i32* %12, align 4, !dbg !8735
  call void @llvm.dbg.declare(metadata %class.ap_int* %13, metadata !8738, metadata !8082), !dbg !8739
  %32 = load i32, i32* %11, align 4, !dbg !8740
  %33 = load %class.ap_int*, %class.ap_int** %5, align 4, !dbg !8741
  %34 = getelementptr inbounds %class.ap_int, %class.ap_int* %33, i32 %32, !dbg !8741
  %35 = bitcast %class.ap_int* %34 to %class.ap_private*, !dbg !8741
  %36 = load i32, i32* %12, align 4, !dbg !8742
  %37 = mul i32 %36, 9, !dbg !8743
  call void @_ZNK10ap_privateILi64ELb1ELb1EErsEj(%class.ap_private* sret %14, %class.ap_private* %35, i32 %37), !dbg !8744
  %38 = invoke %class.ap_int* @_ZN6ap_intILi64EEC2ILi64ELb1EEERK10ap_privateIXT_EXT0_EXleT_Li64EEE(%class.ap_int* %13, %class.ap_private* dereferenceable(8) %14)
          to label %39 unwind label %60, !dbg !8741

; <label>:39:                                     ; preds = %4
  %40 = call %class.ap_private* @_ZN10ap_privateILi64ELb1ELb1EED2Ev(%class.ap_private* %14) #3, !dbg !8745
  call void @llvm.dbg.declare(metadata %class.ap_int* %17, metadata !8747, metadata !8082), !dbg !8748
  %41 = invoke %class.ap_int* @_ZN6ap_intILi64EEC2Ev(%class.ap_int* %17)
          to label %42 unwind label %65, !dbg !8748

; <label>:42:                                     ; preds = %39
  call void @llvm.dbg.declare(metadata i32* %18, metadata !8749, metadata !8082), !dbg !8751
  store i32 0, i32* %18, align 4, !dbg !8751
  br label %43, !dbg !8752

; <label>:43:                                     ; preds = %134, %42
  %44 = load i32, i32* %18, align 4, !dbg !8753
  %45 = load i32, i32* %8, align 4, !dbg !8756
  %46 = icmp ult i32 %44, %45, !dbg !8757
  br i1 %46, label %47, label %137, !dbg !8758

; <label>:47:                                     ; preds = %43
  call void @llvm.dbg.declare(metadata i32* %19, metadata !8759, metadata !8082), !dbg !8762
  store i32 0, i32* %19, align 4, !dbg !8762
  br label %48, !dbg !8763

; <label>:48:                                     ; preds = %125, %47
  %49 = load i32, i32* %19, align 4, !dbg !8764
  %50 = icmp ult i32 %49, 3, !dbg !8767
  br i1 %50, label %51, label %128, !dbg !8768

; <label>:51:                                     ; preds = %48
  %52 = load i32, i32* %12, align 4, !dbg !8769
  %53 = icmp eq i32 %52, 0, !dbg !8772
  br i1 %53, label %54, label %73, !dbg !8773

; <label>:54:                                     ; preds = %51
  %55 = load i32, i32* %11, align 4, !dbg !8774
  %56 = load %class.ap_int*, %class.ap_int** %5, align 4, !dbg !8775
  %57 = getelementptr inbounds %class.ap_int, %class.ap_int* %56, i32 %55, !dbg !8775
  %58 = invoke dereferenceable(8) %class.ap_int* @_ZN6ap_intILi64EEaSERKS0_(%class.ap_int* %13, %class.ap_int* dereferenceable(8) %57)
          to label %59 unwind label %69, !dbg !8776

; <label>:59:                                     ; preds = %54
  br label %73, !dbg !8777

; <label>:60:                                     ; preds = %4
  %61 = landingpad { i8*, i32 }
          cleanup, !dbg !8779
  %62 = extractvalue { i8*, i32 } %61, 0, !dbg !8779
  store i8* %62, i8** %15, align 4, !dbg !8779
  %63 = extractvalue { i8*, i32 } %61, 1, !dbg !8779
  store i32 %63, i32* %16, align 4, !dbg !8779
  %64 = call %class.ap_private* @_ZN10ap_privateILi64ELb1ELb1EED2Ev(%class.ap_private* %14) #3, !dbg !8780
  br label %144, !dbg !8780

; <label>:65:                                     ; preds = %39
  %66 = landingpad { i8*, i32 }
          cleanup, !dbg !8782
  %67 = extractvalue { i8*, i32 } %66, 0, !dbg !8782
  store i8* %67, i8** %15, align 4, !dbg !8782
  %68 = extractvalue { i8*, i32 } %66, 1, !dbg !8782
  store i32 %68, i32* %16, align 4, !dbg !8782
  br label %142, !dbg !8782

; <label>:69:                                     ; preds = %128, %87, %85, %83, %79, %73, %54
  %70 = landingpad { i8*, i32 }
          cleanup, !dbg !8783
  %71 = extractvalue { i8*, i32 } %70, 0, !dbg !8783
  store i8* %71, i8** %15, align 4, !dbg !8783
  %72 = extractvalue { i8*, i32 } %70, 1, !dbg !8783
  store i32 %72, i32* %16, align 4, !dbg !8783
  br label %140, !dbg !8783

; <label>:73:                                     ; preds = %59, %51
  %74 = bitcast %class.ap_int* %17 to %class.ap_private*, !dbg !8785
  invoke void @_ZNK10ap_privateILi64ELb1ELb1EErsEj(%class.ap_private* sret %21, %class.ap_private* %74, i32 9)
          to label %75 unwind label %69, !dbg !8786

; <label>:75:                                     ; preds = %73
  %76 = invoke %class.ap_int* @_ZN6ap_intILi64EEC2ILi64ELb1EEERK10ap_privateIXT_EXT0_EXleT_Li64EEE(%class.ap_int* %20, %class.ap_private* dereferenceable(8) %21)
          to label %77 unwind label %102, !dbg !8787

; <label>:77:                                     ; preds = %75
  %78 = invoke dereferenceable(8) %class.ap_int* @_ZN6ap_intILi64EEaSERKS0_(%class.ap_int* %17, %class.ap_int* dereferenceable(8) %20)
          to label %79 unwind label %106, !dbg !8789

; <label>:79:                                     ; preds = %77
  %80 = call %class.ap_int* @_ZN6ap_intILi64EED2Ev(%class.ap_int* %20) #3, !dbg !8791
  %81 = call %class.ap_private* @_ZN10ap_privateILi64ELb1ELb1EED2Ev(%class.ap_private* %21) #3, !dbg !8793
  %82 = bitcast %class.ap_int* %17 to %class.ap_private*, !dbg !8795
  invoke void @_ZN10ap_privateILi64ELb1ELb1EEclEii(%struct.ap_range_ref.11* sret %22, %class.ap_private* %82, i32 26, i32 18)
          to label %83 unwind label %69, !dbg !8795

; <label>:83:                                     ; preds = %79
  %84 = bitcast %class.ap_int* %13 to %class.ap_private*, !dbg !8796
  invoke void @_ZN10ap_privateILi64ELb1ELb1EEclEii(%struct.ap_range_ref.11* sret %23, %class.ap_private* %84, i32 8, i32 0)
          to label %85 unwind label %69, !dbg !8796

; <label>:85:                                     ; preds = %83
  %86 = invoke dereferenceable(12) %struct.ap_range_ref.11* @_ZN12ap_range_refILi64ELb1EEaSERKS0_(%struct.ap_range_ref.11* %22, %struct.ap_range_ref.11* dereferenceable(12) %23)
          to label %87 unwind label %69, !dbg !8797

; <label>:87:                                     ; preds = %85
  %88 = bitcast %class.ap_int* %13 to %class.ap_private*, !dbg !8798
  invoke void @_ZNK10ap_privateILi64ELb1ELb1EErsEj(%class.ap_private* sret %25, %class.ap_private* %88, i32 9)
          to label %89 unwind label %69, !dbg !8799

; <label>:89:                                     ; preds = %87
  %90 = invoke %class.ap_int* @_ZN6ap_intILi64EEC2ILi64ELb1EEERK10ap_privateIXT_EXT0_EXleT_Li64EEE(%class.ap_int* %24, %class.ap_private* dereferenceable(8) %25)
          to label %91 unwind label %113, !dbg !8800

; <label>:91:                                     ; preds = %89
  %92 = invoke dereferenceable(8) %class.ap_int* @_ZN6ap_intILi64EEaSERKS0_(%class.ap_int* %13, %class.ap_int* dereferenceable(8) %24)
          to label %93 unwind label %117, !dbg !8801

; <label>:93:                                     ; preds = %91
  %94 = call %class.ap_int* @_ZN6ap_intILi64EED2Ev(%class.ap_int* %24) #3, !dbg !8802
  %95 = call %class.ap_private* @_ZN10ap_privateILi64ELb1ELb1EED2Ev(%class.ap_private* %25) #3, !dbg !8803
  %96 = load i32, i32* %12, align 4, !dbg !8804
  %97 = add i32 %96, 1, !dbg !8804
  store i32 %97, i32* %12, align 4, !dbg !8804
  %98 = icmp eq i32 %97, 7, !dbg !8806
  br i1 %98, label %99, label %124, !dbg !8807

; <label>:99:                                     ; preds = %93
  store i32 0, i32* %12, align 4, !dbg !8808
  %100 = load i32, i32* %11, align 4, !dbg !8810
  %101 = add i32 %100, 1, !dbg !8810
  store i32 %101, i32* %11, align 4, !dbg !8810
  br label %124, !dbg !8811

; <label>:102:                                    ; preds = %75
  %103 = landingpad { i8*, i32 }
          cleanup, !dbg !8812
  %104 = extractvalue { i8*, i32 } %103, 0, !dbg !8812
  store i8* %104, i8** %15, align 4, !dbg !8812
  %105 = extractvalue { i8*, i32 } %103, 1, !dbg !8812
  store i32 %105, i32* %16, align 4, !dbg !8812
  br label %111, !dbg !8812

; <label>:106:                                    ; preds = %77
  %107 = landingpad { i8*, i32 }
          cleanup, !dbg !8813
  %108 = extractvalue { i8*, i32 } %107, 0, !dbg !8813
  store i8* %108, i8** %15, align 4, !dbg !8813
  %109 = extractvalue { i8*, i32 } %107, 1, !dbg !8813
  store i32 %109, i32* %16, align 4, !dbg !8813
  %110 = call %class.ap_int* @_ZN6ap_intILi64EED2Ev(%class.ap_int* %20) #3, !dbg !8815
  br label %111, !dbg !8815

; <label>:111:                                    ; preds = %106, %102
  %112 = call %class.ap_private* @_ZN10ap_privateILi64ELb1ELb1EED2Ev(%class.ap_private* %21) #3, !dbg !8816
  br label %140, !dbg !8816

; <label>:113:                                    ; preds = %89
  %114 = landingpad { i8*, i32 }
          cleanup, !dbg !8818
  %115 = extractvalue { i8*, i32 } %114, 0, !dbg !8818
  store i8* %115, i8** %15, align 4, !dbg !8818
  %116 = extractvalue { i8*, i32 } %114, 1, !dbg !8818
  store i32 %116, i32* %16, align 4, !dbg !8818
  br label %122, !dbg !8818

; <label>:117:                                    ; preds = %91
  %118 = landingpad { i8*, i32 }
          cleanup, !dbg !8819
  %119 = extractvalue { i8*, i32 } %118, 0, !dbg !8819
  store i8* %119, i8** %15, align 4, !dbg !8819
  %120 = extractvalue { i8*, i32 } %118, 1, !dbg !8819
  store i32 %120, i32* %16, align 4, !dbg !8819
  %121 = call %class.ap_int* @_ZN6ap_intILi64EED2Ev(%class.ap_int* %24) #3, !dbg !8821
  br label %122, !dbg !8821

; <label>:122:                                    ; preds = %117, %113
  %123 = call %class.ap_private* @_ZN10ap_privateILi64ELb1ELb1EED2Ev(%class.ap_private* %25) #3, !dbg !8822
  br label %140, !dbg !8822

; <label>:124:                                    ; preds = %99, %93
  br label %125, !dbg !8823

; <label>:125:                                    ; preds = %124
  %126 = load i32, i32* %19, align 4, !dbg !8824
  %127 = add i32 %126, 1, !dbg !8824
  store i32 %127, i32* %19, align 4, !dbg !8824
  br label %48, !dbg !8826, !llvm.loop !8827

; <label>:128:                                    ; preds = %48
  %129 = load i32, i32* %18, align 4, !dbg !8829
  %130 = load %class.ap_int*, %class.ap_int** %6, align 4, !dbg !8830
  %131 = getelementptr inbounds %class.ap_int, %class.ap_int* %130, i32 %129, !dbg !8830
  %132 = invoke dereferenceable(8) %class.ap_int* @_ZN6ap_intILi64EEaSERKS0_(%class.ap_int* %131, %class.ap_int* dereferenceable(8) %17)
          to label %133 unwind label %69, !dbg !8831

; <label>:133:                                    ; preds = %128
  br label %134, !dbg !8832

; <label>:134:                                    ; preds = %133
  %135 = load i32, i32* %18, align 4, !dbg !8833
  %136 = add i32 %135, 1, !dbg !8833
  store i32 %136, i32* %18, align 4, !dbg !8833
  br label %43, !dbg !8835, !llvm.loop !8836

; <label>:137:                                    ; preds = %43
  %138 = call %class.ap_int* @_ZN6ap_intILi64EED2Ev(%class.ap_int* %17) #3, !dbg !8838
  %139 = call %class.ap_int* @_ZN6ap_intILi64EED2Ev(%class.ap_int* %13) #3, !dbg !8840
  ret void, !dbg !8838

; <label>:140:                                    ; preds = %122, %111, %69
  %141 = call %class.ap_int* @_ZN6ap_intILi64EED2Ev(%class.ap_int* %17) #3, !dbg !8842
  br label %142, !dbg !8842

; <label>:142:                                    ; preds = %140, %65
  %143 = call %class.ap_int* @_ZN6ap_intILi64EED2Ev(%class.ap_int* %13) #3, !dbg !8844
  br label %144, !dbg !8844

; <label>:144:                                    ; preds = %142, %60
  %145 = load i8*, i8** %15, align 4, !dbg !8846
  %146 = load i32, i32* %16, align 4, !dbg !8846
  %147 = insertvalue { i8*, i32 } undef, i8* %145, 0, !dbg !8846
  %148 = insertvalue { i8*, i32 } %147, i32 %146, 1, !dbg !8846
  resume { i8*, i32 } %148, !dbg !8846
}

define void @_Z17load_conv_weightsP6ap_intILi64EES1_jjj(%class.ap_int*, %class.ap_int*, i32, i32, i32) #0 personality i8* bitcast (i32 (...)* @__gxx_personality_v0 to i8*) !dbg !8848 !xidane.fname !8851 !xidane.function_declaration_type !8852 !xidane.function_declaration_filename !8094 {
  %6 = alloca %class.ap_int*, align 4
  %7 = alloca %class.ap_int*, align 4
  %8 = alloca i32, align 4
  %9 = alloca i32, align 4
  %10 = alloca i32, align 4
  %11 = alloca i32, align 4
  %12 = alloca i32, align 4
  %13 = alloca i32, align 4
  %14 = alloca i32, align 4
  %15 = alloca %class.ap_int, align 8
  %16 = alloca %class.ap_private, align 8
  %17 = alloca i8*
  %18 = alloca i32
  %19 = alloca [2 x %class.ap_int], align 8
  %20 = alloca i32, align 4
  %21 = alloca %class.ap_int, align 8
  %22 = alloca i32, align 4
  %23 = alloca i32, align 4
  %24 = alloca %class.ap_int, align 8
  %25 = alloca %class.ap_private, align 8
  %26 = alloca %struct.ap_range_ref.11, align 4
  %27 = alloca %struct.ap_range_ref.11, align 4
  %28 = alloca %class.ap_int, align 8
  %29 = alloca %class.ap_private, align 8
  %30 = alloca i32, align 4
  store %class.ap_int* %0, %class.ap_int** %6, align 4
  call void @llvm.dbg.declare(metadata %class.ap_int** %6, metadata !8853, metadata !8082), !dbg !8854
  store %class.ap_int* %1, %class.ap_int** %7, align 4
  call void @llvm.dbg.declare(metadata %class.ap_int** %7, metadata !8855, metadata !8082), !dbg !8856
  store i32 %2, i32* %8, align 4
  call void @llvm.dbg.declare(metadata i32* %8, metadata !8857, metadata !8082), !dbg !8858
  store i32 %3, i32* %9, align 4
  call void @llvm.dbg.declare(metadata i32* %9, metadata !8859, metadata !8082), !dbg !8860
  store i32 %4, i32* %10, align 4
  call void @llvm.dbg.declare(metadata i32* %10, metadata !8861, metadata !8082), !dbg !8862
  call void @llvm.dbg.declare(metadata i32* %11, metadata !8863, metadata !8082), !dbg !8864
  %31 = load i32, i32* %8, align 4, !dbg !8865
  %32 = load i32, i32* %9, align 4, !dbg !8866
  %33 = mul i32 %31, %32, !dbg !8867
  store i32 %33, i32* %11, align 4, !dbg !8864
  call void @llvm.dbg.declare(metadata i32* %12, metadata !8868, metadata !8082), !dbg !8869
  %34 = load i32, i32* %11, align 4, !dbg !8870
  %35 = udiv i32 %34, 7, !dbg !8871
  store i32 %35, i32* %12, align 4, !dbg !8869
  call void @llvm.dbg.declare(metadata i32* %13, metadata !8872, metadata !8082), !dbg !8873
  %36 = load i32, i32* %11, align 4, !dbg !8874
  %37 = urem i32 %36, 7, !dbg !8875
  store i32 %37, i32* %13, align 4, !dbg !8873
  call void @llvm.dbg.declare(metadata i32* %14, metadata !8876, metadata !8082), !dbg !8877
  %38 = load i32, i32* %9, align 4, !dbg !8878
  %39 = load i32, i32* %10, align 4, !dbg !8879
  %40 = mul i32 %38, %39, !dbg !8880
  %41 = call i32 @_Z12WTS_TO_WORDSj(i32 %40), !dbg !8881
  store i32 %41, i32* %14, align 4, !dbg !8877
  %42 = load i32, i32* %14, align 4, !dbg !8882
  %43 = icmp ule i32 %42, 4682, !dbg !8882
  br i1 %43, label %44, label %45, !dbg !8882

; <label>:44:                                     ; preds = %5
  br label %47, !dbg !8883

; <label>:45:                                     ; preds = %5
  call void @__assert_func(i8* getelementptr inbounds ([92 x i8], [92 x i8]* @.str.10, i32 0, i32 0), i32 245, i8* getelementptr inbounds ([81 x i8], [81 x i8]* @__PRETTY_FUNCTION__._Z17load_conv_weightsP6ap_intILi64EES1_jjj, i32 0, i32 0), i8* getelementptr inbounds ([21 x i8], [21 x i8]* @.str.19, i32 0, i32 0)) #14, !dbg !8885
  unreachable, !dbg !8885
                                                  ; No predecessors!
  br label %47, !dbg !8887

; <label>:47:                                     ; preds = %46, %44
  call void @llvm.dbg.declare(metadata %class.ap_int* %15, metadata !8889, metadata !8082), !dbg !8890
  %48 = load i32, i32* %12, align 4, !dbg !8891
  %49 = load %class.ap_int*, %class.ap_int** %6, align 4, !dbg !8892
  %50 = getelementptr inbounds %class.ap_int, %class.ap_int* %49, i32 %48, !dbg !8892
  %51 = bitcast %class.ap_int* %50 to %class.ap_private*, !dbg !8892
  %52 = load i32, i32* %13, align 4, !dbg !8893
  %53 = mul i32 %52, 9, !dbg !8894
  call void @_ZNK10ap_privateILi64ELb1ELb1EErsEj(%class.ap_private* sret %16, %class.ap_private* %51, i32 %53), !dbg !8895
  %54 = invoke %class.ap_int* @_ZN6ap_intILi64EEC2ILi64ELb1EEERK10ap_privateIXT_EXT0_EXleT_Li64EEE(%class.ap_int* %15, %class.ap_private* dereferenceable(8) %16)
          to label %55 unwind label %80, !dbg !8892

; <label>:55:                                     ; preds = %47
  %56 = call %class.ap_private* @_ZN10ap_privateILi64ELb1ELb1EED2Ev(%class.ap_private* %16) #3, !dbg !8896
  call void @llvm.dbg.declare(metadata [2 x %class.ap_int]* %19, metadata !8897, metadata !8082), !dbg !8901
  %57 = getelementptr inbounds [2 x %class.ap_int], [2 x %class.ap_int]* %19, i32 0, i32 0, !dbg !8901
  %58 = getelementptr inbounds %class.ap_int, %class.ap_int* %57, i32 2, !dbg !8901
  br label %59, !dbg !8901

; <label>:59:                                     ; preds = %62, %55
  %60 = phi %class.ap_int* [ %57, %55 ], [ %63, %62 ], !dbg !8902
  %61 = invoke %class.ap_int* @_ZN6ap_intILi64EEC2Ev(%class.ap_int* %60)
          to label %62 unwind label %85, !dbg !8902

; <label>:62:                                     ; preds = %59
  %63 = getelementptr inbounds %class.ap_int, %class.ap_int* %60, i32 1, !dbg !8903
  %64 = icmp eq %class.ap_int* %63, %58, !dbg !8903
  br i1 %64, label %65, label %59, !dbg !8903

; <label>:65:                                     ; preds = %62
  call void @llvm.dbg.declare(metadata i32* %20, metadata !8904, metadata !8082), !dbg !8906
  store i32 0, i32* %20, align 4, !dbg !8906
  br label %66, !dbg !8907

; <label>:66:                                     ; preds = %77, %65
  %67 = load i32, i32* %20, align 4, !dbg !8908
  %68 = icmp ult i32 %67, 2, !dbg !8911
  br i1 %68, label %69, label %105, !dbg !8912

; <label>:69:                                     ; preds = %66
  %70 = load i32, i32* %20, align 4, !dbg !8913
  %71 = getelementptr inbounds [2 x %class.ap_int], [2 x %class.ap_int]* %19, i32 0, i32 %70, !dbg !8914
  %72 = invoke %class.ap_int* @_ZN6ap_intILi64EEC2Ei(%class.ap_int* %21, i32 0)
          to label %73 unwind label %96, !dbg !8915

; <label>:73:                                     ; preds = %69
  %74 = invoke dereferenceable(8) %class.ap_int* @_ZN6ap_intILi64EEaSERKS0_(%class.ap_int* %71, %class.ap_int* dereferenceable(8) %21)
          to label %75 unwind label %100, !dbg !8916

; <label>:75:                                     ; preds = %73
  %76 = call %class.ap_int* @_ZN6ap_intILi64EED2Ev(%class.ap_int* %21) #3, !dbg !8917
  br label %77, !dbg !8917

; <label>:77:                                     ; preds = %75
  %78 = load i32, i32* %20, align 4, !dbg !8919
  %79 = add i32 %78, 1, !dbg !8919
  store i32 %79, i32* %20, align 4, !dbg !8919
  br label %66, !dbg !8920, !llvm.loop !8921

; <label>:80:                                     ; preds = %47
  %81 = landingpad { i8*, i32 }
          cleanup, !dbg !8923
  %82 = extractvalue { i8*, i32 } %81, 0, !dbg !8923
  store i8* %82, i8** %17, align 4, !dbg !8923
  %83 = extractvalue { i8*, i32 } %81, 1, !dbg !8923
  store i32 %83, i32* %18, align 4, !dbg !8923
  %84 = call %class.ap_private* @_ZN10ap_privateILi64ELb1ELb1EED2Ev(%class.ap_private* %16) #3, !dbg !8924
  br label %233, !dbg !8924

; <label>:85:                                     ; preds = %59
  %86 = landingpad { i8*, i32 }
          cleanup, !dbg !8925
  %87 = extractvalue { i8*, i32 } %86, 0, !dbg !8925
  store i8* %87, i8** %17, align 4, !dbg !8925
  %88 = extractvalue { i8*, i32 } %86, 1, !dbg !8925
  store i32 %88, i32* %18, align 4, !dbg !8925
  %89 = icmp eq %class.ap_int* %57, %60, !dbg !8926
  br i1 %89, label %95, label %90, !dbg !8926

; <label>:90:                                     ; preds = %90, %85
  %91 = phi %class.ap_int* [ %60, %85 ], [ %92, %90 ], !dbg !8927
  %92 = getelementptr inbounds %class.ap_int, %class.ap_int* %91, i32 -1, !dbg !8927
  %93 = call %class.ap_int* @_ZN6ap_intILi64EED2Ev(%class.ap_int* %92) #3, !dbg !8927
  %94 = icmp eq %class.ap_int* %92, %57, !dbg !8927
  br i1 %94, label %95, label %90, !dbg !8927

; <label>:95:                                     ; preds = %90, %85
  br label %231, !dbg !8929

; <label>:96:                                     ; preds = %194, %149, %147, %145, %138, %126, %120, %69
  %97 = landingpad { i8*, i32 }
          cleanup, !dbg !8931
  %98 = extractvalue { i8*, i32 } %97, 0, !dbg !8931
  store i8* %98, i8** %17, align 4, !dbg !8931
  %99 = extractvalue { i8*, i32 } %97, 1, !dbg !8931
  store i32 %99, i32* %18, align 4, !dbg !8931
  br label %222, !dbg !8931

; <label>:100:                                    ; preds = %73
  %101 = landingpad { i8*, i32 }
          cleanup, !dbg !8932
  %102 = extractvalue { i8*, i32 } %101, 0, !dbg !8932
  store i8* %102, i8** %17, align 4, !dbg !8932
  %103 = extractvalue { i8*, i32 } %101, 1, !dbg !8932
  store i32 %103, i32* %18, align 4, !dbg !8932
  %104 = call %class.ap_int* @_ZN6ap_intILi64EED2Ev(%class.ap_int* %21) #3, !dbg !8934
  br label %222, !dbg !8934

; <label>:105:                                    ; preds = %66
  call void @llvm.dbg.declare(metadata i32* %22, metadata !8935, metadata !8082), !dbg !8937
  store i32 0, i32* %22, align 4, !dbg !8937
  br label %106, !dbg !8938

; <label>:106:                                    ; preds = %209, %105
  %107 = load i32, i32* %22, align 4, !dbg !8939
  %108 = load i32, i32* %14, align 4, !dbg !8942
  %109 = add i32 %108, 2, !dbg !8943
  %110 = sub i32 %109, 1, !dbg !8944
  %111 = udiv i32 %110, 2, !dbg !8945
  %112 = icmp ult i32 %107, %111, !dbg !8946
  br i1 %112, label %113, label %212, !dbg !8947

; <label>:113:                                    ; preds = %106
  call void @llvm.dbg.declare(metadata i32* %23, metadata !8948, metadata !8082), !dbg !8951
  store i32 0, i32* %23, align 4, !dbg !8951
  br label %114, !dbg !8952

; <label>:114:                                    ; preds = %187, %113
  %115 = load i32, i32* %23, align 4, !dbg !8953
  %116 = icmp ult i32 %115, 14, !dbg !8956
  br i1 %116, label %117, label %190, !dbg !8957

; <label>:117:                                    ; preds = %114
  %118 = load i32, i32* %13, align 4, !dbg !8958
  %119 = icmp eq i32 %118, 0, !dbg !8961
  br i1 %119, label %120, label %126, !dbg !8962

; <label>:120:                                    ; preds = %117
  %121 = load i32, i32* %12, align 4, !dbg !8963
  %122 = load %class.ap_int*, %class.ap_int** %6, align 4, !dbg !8964
  %123 = getelementptr inbounds %class.ap_int, %class.ap_int* %122, i32 %121, !dbg !8964
  %124 = invoke dereferenceable(8) %class.ap_int* @_ZN6ap_intILi64EEaSERKS0_(%class.ap_int* %15, %class.ap_int* dereferenceable(8) %123)
          to label %125 unwind label %96, !dbg !8965

; <label>:125:                                    ; preds = %120
  br label %126, !dbg !8966

; <label>:126:                                    ; preds = %125, %117
  %127 = load i32, i32* %23, align 4, !dbg !8968
  %128 = urem i32 %127, 2, !dbg !8969
  %129 = getelementptr inbounds [2 x %class.ap_int], [2 x %class.ap_int]* %19, i32 0, i32 %128, !dbg !8970
  %130 = load i32, i32* %23, align 4, !dbg !8971
  %131 = urem i32 %130, 2, !dbg !8972
  %132 = getelementptr inbounds [2 x %class.ap_int], [2 x %class.ap_int]* %19, i32 0, i32 %131, !dbg !8973
  %133 = bitcast %class.ap_int* %132 to %class.ap_private*, !dbg !8973
  invoke void @_ZNK10ap_privateILi64ELb1ELb1EErsEj(%class.ap_private* sret %25, %class.ap_private* %133, i32 9)
          to label %134 unwind label %96, !dbg !8974

; <label>:134:                                    ; preds = %126
  %135 = invoke %class.ap_int* @_ZN6ap_intILi64EEC2ILi64ELb1EEERK10ap_privateIXT_EXT0_EXleT_Li64EEE(%class.ap_int* %24, %class.ap_private* dereferenceable(8) %25)
          to label %136 unwind label %164, !dbg !8975

; <label>:136:                                    ; preds = %134
  %137 = invoke dereferenceable(8) %class.ap_int* @_ZN6ap_intILi64EEaSERKS0_(%class.ap_int* %129, %class.ap_int* dereferenceable(8) %24)
          to label %138 unwind label %168, !dbg !8977

; <label>:138:                                    ; preds = %136
  %139 = call %class.ap_int* @_ZN6ap_intILi64EED2Ev(%class.ap_int* %24) #3, !dbg !8979
  %140 = call %class.ap_private* @_ZN10ap_privateILi64ELb1ELb1EED2Ev(%class.ap_private* %25) #3, !dbg !8981
  %141 = load i32, i32* %23, align 4, !dbg !8983
  %142 = urem i32 %141, 2, !dbg !8984
  %143 = getelementptr inbounds [2 x %class.ap_int], [2 x %class.ap_int]* %19, i32 0, i32 %142, !dbg !8985
  %144 = bitcast %class.ap_int* %143 to %class.ap_private*, !dbg !8985
  invoke void @_ZN10ap_privateILi64ELb1ELb1EEclEii(%struct.ap_range_ref.11* sret %26, %class.ap_private* %144, i32 62, i32 54)
          to label %145 unwind label %96, !dbg !8985

; <label>:145:                                    ; preds = %138
  %146 = bitcast %class.ap_int* %15 to %class.ap_private*, !dbg !8986
  invoke void @_ZN10ap_privateILi64ELb1ELb1EEclEii(%struct.ap_range_ref.11* sret %27, %class.ap_private* %146, i32 8, i32 0)
          to label %147 unwind label %96, !dbg !8986

; <label>:147:                                    ; preds = %145
  %148 = invoke dereferenceable(12) %struct.ap_range_ref.11* @_ZN12ap_range_refILi64ELb1EEaSERKS0_(%struct.ap_range_ref.11* %26, %struct.ap_range_ref.11* dereferenceable(12) %27)
          to label %149 unwind label %96, !dbg !8987

; <label>:149:                                    ; preds = %147
  %150 = bitcast %class.ap_int* %15 to %class.ap_private*, !dbg !8988
  invoke void @_ZNK10ap_privateILi64ELb1ELb1EErsEj(%class.ap_private* sret %29, %class.ap_private* %150, i32 9)
          to label %151 unwind label %96, !dbg !8989

; <label>:151:                                    ; preds = %149
  %152 = invoke %class.ap_int* @_ZN6ap_intILi64EEC2ILi64ELb1EEERK10ap_privateIXT_EXT0_EXleT_Li64EEE(%class.ap_int* %28, %class.ap_private* dereferenceable(8) %29)
          to label %153 unwind label %175, !dbg !8990

; <label>:153:                                    ; preds = %151
  %154 = invoke dereferenceable(8) %class.ap_int* @_ZN6ap_intILi64EEaSERKS0_(%class.ap_int* %15, %class.ap_int* dereferenceable(8) %28)
          to label %155 unwind label %179, !dbg !8991

; <label>:155:                                    ; preds = %153
  %156 = call %class.ap_int* @_ZN6ap_intILi64EED2Ev(%class.ap_int* %28) #3, !dbg !8992
  %157 = call %class.ap_private* @_ZN10ap_privateILi64ELb1ELb1EED2Ev(%class.ap_private* %29) #3, !dbg !8993
  %158 = load i32, i32* %13, align 4, !dbg !8994
  %159 = add i32 %158, 1, !dbg !8994
  store i32 %159, i32* %13, align 4, !dbg !8994
  %160 = icmp eq i32 %159, 7, !dbg !8996
  br i1 %160, label %161, label %186, !dbg !8997

; <label>:161:                                    ; preds = %155
  store i32 0, i32* %13, align 4, !dbg !8998
  %162 = load i32, i32* %12, align 4, !dbg !9000
  %163 = add i32 %162, 1, !dbg !9000
  store i32 %163, i32* %12, align 4, !dbg !9000
  br label %186, !dbg !9001

; <label>:164:                                    ; preds = %134
  %165 = landingpad { i8*, i32 }
          cleanup, !dbg !9002
  %166 = extractvalue { i8*, i32 } %165, 0, !dbg !9002
  store i8* %166, i8** %17, align 4, !dbg !9002
  %167 = extractvalue { i8*, i32 } %165, 1, !dbg !9002
  store i32 %167, i32* %18, align 4, !dbg !9002
  br label %173, !dbg !9002

; <label>:168:                                    ; preds = %136
  %169 = landingpad { i8*, i32 }
          cleanup, !dbg !9004
  %170 = extractvalue { i8*, i32 } %169, 0, !dbg !9004
  store i8* %170, i8** %17, align 4, !dbg !9004
  %171 = extractvalue { i8*, i32 } %169, 1, !dbg !9004
  store i32 %171, i32* %18, align 4, !dbg !9004
  %172 = call %class.ap_int* @_ZN6ap_intILi64EED2Ev(%class.ap_int* %24) #3, !dbg !9006
  br label %173, !dbg !9006

; <label>:173:                                    ; preds = %168, %164
  %174 = call %class.ap_private* @_ZN10ap_privateILi64ELb1ELb1EED2Ev(%class.ap_private* %25) #3, !dbg !9007
  br label %222, !dbg !9007

; <label>:175:                                    ; preds = %151
  %176 = landingpad { i8*, i32 }
          cleanup, !dbg !9008
  %177 = extractvalue { i8*, i32 } %176, 0, !dbg !9008
  store i8* %177, i8** %17, align 4, !dbg !9008
  %178 = extractvalue { i8*, i32 } %176, 1, !dbg !9008
  store i32 %178, i32* %18, align 4, !dbg !9008
  br label %184, !dbg !9008

; <label>:179:                                    ; preds = %153
  %180 = landingpad { i8*, i32 }
          cleanup, !dbg !9010
  %181 = extractvalue { i8*, i32 } %180, 0, !dbg !9010
  store i8* %181, i8** %17, align 4, !dbg !9010
  %182 = extractvalue { i8*, i32 } %180, 1, !dbg !9010
  store i32 %182, i32* %18, align 4, !dbg !9010
  %183 = call %class.ap_int* @_ZN6ap_intILi64EED2Ev(%class.ap_int* %28) #3, !dbg !9012
  br label %184, !dbg !9012

; <label>:184:                                    ; preds = %179, %175
  %185 = call %class.ap_private* @_ZN10ap_privateILi64ELb1ELb1EED2Ev(%class.ap_private* %29) #3, !dbg !9013
  br label %222, !dbg !9013

; <label>:186:                                    ; preds = %161, %155
  br label %187, !dbg !9014

; <label>:187:                                    ; preds = %186
  %188 = load i32, i32* %23, align 4, !dbg !9015
  %189 = add i32 %188, 1, !dbg !9015
  store i32 %189, i32* %23, align 4, !dbg !9015
  br label %114, !dbg !9017, !llvm.loop !9018

; <label>:190:                                    ; preds = %114
  call void @llvm.dbg.declare(metadata i32* %30, metadata !9020, metadata !8082), !dbg !9022
  store i32 0, i32* %30, align 4, !dbg !9022
  br label %191, !dbg !9023

; <label>:191:                                    ; preds = %205, %190
  %192 = load i32, i32* %30, align 4, !dbg !9024
  %193 = icmp ult i32 %192, 2, !dbg !9027
  br i1 %193, label %194, label %208, !dbg !9028

; <label>:194:                                    ; preds = %191
  %195 = load i32, i32* %22, align 4, !dbg !9029
  %196 = mul i32 %195, 2, !dbg !9030
  %197 = load i32, i32* %30, align 4, !dbg !9031
  %198 = add i32 %196, %197, !dbg !9032
  %199 = load %class.ap_int*, %class.ap_int** %7, align 4, !dbg !9033
  %200 = getelementptr inbounds %class.ap_int, %class.ap_int* %199, i32 %198, !dbg !9033
  %201 = load i32, i32* %30, align 4, !dbg !9034
  %202 = getelementptr inbounds [2 x %class.ap_int], [2 x %class.ap_int]* %19, i32 0, i32 %201, !dbg !9035
  %203 = invoke dereferenceable(8) %class.ap_int* @_ZN6ap_intILi64EEaSERKS0_(%class.ap_int* %200, %class.ap_int* dereferenceable(8) %202)
          to label %204 unwind label %96, !dbg !9036

; <label>:204:                                    ; preds = %194
  br label %205, !dbg !9037

; <label>:205:                                    ; preds = %204
  %206 = load i32, i32* %30, align 4, !dbg !9038
  %207 = add i32 %206, 1, !dbg !9038
  store i32 %207, i32* %30, align 4, !dbg !9038
  br label %191, !dbg !9040, !llvm.loop !9041

; <label>:208:                                    ; preds = %191
  br label %209, !dbg !9043

; <label>:209:                                    ; preds = %208
  %210 = load i32, i32* %22, align 4, !dbg !9044
  %211 = add i32 %210, 1, !dbg !9044
  store i32 %211, i32* %22, align 4, !dbg !9044
  br label %106, !dbg !9046, !llvm.loop !9047

; <label>:212:                                    ; preds = %106
  %213 = getelementptr inbounds [2 x %class.ap_int], [2 x %class.ap_int]* %19, i32 0, i32 0, !dbg !9049
  %214 = getelementptr inbounds %class.ap_int, %class.ap_int* %213, i32 2, !dbg !9049
  br label %215, !dbg !9049

; <label>:215:                                    ; preds = %215, %212
  %216 = phi %class.ap_int* [ %214, %212 ], [ %217, %215 ], !dbg !9051
  %217 = getelementptr inbounds %class.ap_int, %class.ap_int* %216, i32 -1, !dbg !9051
  %218 = call %class.ap_int* @_ZN6ap_intILi64EED2Ev(%class.ap_int* %217) #3, !dbg !9051
  %219 = icmp eq %class.ap_int* %217, %213, !dbg !9051
  br i1 %219, label %220, label %215, !dbg !9051

; <label>:220:                                    ; preds = %215
  %221 = call %class.ap_int* @_ZN6ap_intILi64EED2Ev(%class.ap_int* %15) #3, !dbg !9053
  ret void, !dbg !9053

; <label>:222:                                    ; preds = %184, %173, %100, %96
  %223 = getelementptr inbounds [2 x %class.ap_int], [2 x %class.ap_int]* %19, i32 0, i32 0, !dbg !9055
  %224 = getelementptr inbounds %class.ap_int, %class.ap_int* %223, i32 2, !dbg !9055
  br label %225, !dbg !9055

; <label>:225:                                    ; preds = %225, %222
  %226 = phi %class.ap_int* [ %224, %222 ], [ %227, %225 ], !dbg !9057
  %227 = getelementptr inbounds %class.ap_int, %class.ap_int* %226, i32 -1, !dbg !9057
  %228 = call %class.ap_int* @_ZN6ap_intILi64EED2Ev(%class.ap_int* %227) #3, !dbg !9057
  %229 = icmp eq %class.ap_int* %227, %223, !dbg !9057
  br i1 %229, label %230, label %225, !dbg !9057

; <label>:230:                                    ; preds = %225
  br label %231, !dbg !9059

; <label>:231:                                    ; preds = %230, %95
  %232 = call %class.ap_int* @_ZN6ap_intILi64EED2Ev(%class.ap_int* %15) #3, !dbg !9061
  br label %233, !dbg !9061

; <label>:233:                                    ; preds = %231, %80
  %234 = load i8*, i8** %17, align 4, !dbg !9063
  %235 = load i32, i32* %18, align 4, !dbg !9063
  %236 = insertvalue { i8*, i32 } undef, i8* %234, 0, !dbg !9063
  %237 = insertvalue { i8*, i32 } %236, i32 %235, 1, !dbg !9063
  resume { i8*, i32 } %237, !dbg !9063
}

define void @_Z18load_dense_weightsP6ap_intILi64EES1_jjj(%class.ap_int*, %class.ap_int*, i32, i32, i32) #0 !dbg !9064 !xidane.fname !9065 !xidane.function_declaration_type !8852 !xidane.function_declaration_filename !8094 {
  %6 = alloca %class.ap_int*, align 4
  %7 = alloca %class.ap_int*, align 4
  %8 = alloca i32, align 4
  %9 = alloca i32, align 4
  %10 = alloca i32, align 4
  %11 = alloca i32, align 4
  store %class.ap_int* %0, %class.ap_int** %6, align 4
  call void @llvm.dbg.declare(metadata %class.ap_int** %6, metadata !9066, metadata !8082), !dbg !9067
  store %class.ap_int* %1, %class.ap_int** %7, align 4
  call void @llvm.dbg.declare(metadata %class.ap_int** %7, metadata !9068, metadata !8082), !dbg !9069
  store i32 %2, i32* %8, align 4
  call void @llvm.dbg.declare(metadata i32* %8, metadata !9070, metadata !8082), !dbg !9071
  store i32 %3, i32* %9, align 4
  call void @llvm.dbg.declare(metadata i32* %9, metadata !9072, metadata !8082), !dbg !9073
  store i32 %4, i32* %10, align 4
  call void @llvm.dbg.declare(metadata i32* %10, metadata !9074, metadata !8082), !dbg !9075
  %12 = load i32, i32* %9, align 4, !dbg !9076
  %13 = urem i32 %12, 64, !dbg !9076
  %14 = icmp eq i32 %13, 0, !dbg !9076
  br i1 %14, label %15, label %16, !dbg !9076

; <label>:15:                                     ; preds = %5
  br label %18, !dbg !9077

; <label>:16:                                     ; preds = %5
  call void @__assert_func(i8* getelementptr inbounds ([92 x i8], [92 x i8]* @.str.10, i32 0, i32 0), i32 284, i8* getelementptr inbounds ([82 x i8], [82 x i8]* @__PRETTY_FUNCTION__._Z18load_dense_weightsP6ap_intILi64EES1_jjj, i32 0, i32 0), i8* getelementptr inbounds ([22 x i8], [22 x i8]* @.str.20, i32 0, i32 0)) #14, !dbg !9079
  unreachable, !dbg !9079
                                                  ; No predecessors!
  br label %18, !dbg !9081

; <label>:18:                                     ; preds = %17, %15
  call void @llvm.dbg.declare(metadata i32* %11, metadata !9083, metadata !8082), !dbg !9085
  store i32 0, i32* %11, align 4, !dbg !9085
  br label %19, !dbg !9086

; <label>:19:                                     ; preds = %39, %18
  %20 = load i32, i32* %11, align 4, !dbg !9087
  %21 = load i32, i32* %9, align 4, !dbg !9090
  %22 = load i32, i32* %10, align 4, !dbg !9091
  %23 = mul i32 %21, %22, !dbg !9092
  %24 = udiv i32 %23, 64, !dbg !9093
  %25 = icmp ult i32 %20, %24, !dbg !9094
  br i1 %25, label %26, label %42, !dbg !9095

; <label>:26:                                     ; preds = %19
  %27 = load i32, i32* %11, align 4, !dbg !9096
  %28 = load %class.ap_int*, %class.ap_int** %7, align 4, !dbg !9098
  %29 = getelementptr inbounds %class.ap_int, %class.ap_int* %28, i32 %27, !dbg !9098
  %30 = load i32, i32* %8, align 4, !dbg !9099
  %31 = load i32, i32* %9, align 4, !dbg !9100
  %32 = mul i32 %30, %31, !dbg !9101
  %33 = udiv i32 %32, 64, !dbg !9102
  %34 = load i32, i32* %11, align 4, !dbg !9103
  %35 = add i32 %33, %34, !dbg !9104
  %36 = load %class.ap_int*, %class.ap_int** %6, align 4, !dbg !9105
  %37 = getelementptr inbounds %class.ap_int, %class.ap_int* %36, i32 %35, !dbg !9105
  %38 = call dereferenceable(8) %class.ap_int* @_ZN6ap_intILi64EEaSERKS0_(%class.ap_int* %29, %class.ap_int* dereferenceable(8) %37), !dbg !9106
  br label %39, !dbg !9107

; <label>:39:                                     ; preds = %26
  %40 = load i32, i32* %11, align 4, !dbg !9108
  %41 = add i32 %40, 1, !dbg !9108
  store i32 %41, i32* %11, align 4, !dbg !9108
  br label %19, !dbg !9110, !llvm.loop !9111

; <label>:42:                                     ; preds = %19
  ret void, !dbg !9113
}

; Function Attrs: inlinehint
define linkonce_odr zeroext i1 @_ZneILi2ELb0EEbRK10ap_privateIXT_EXT0_EXleT_Li64EEEi(%class.ap_private.2* dereferenceable(1), i32) #6 comdat personality i8* bitcast (i32 (...)* @__gxx_personality_v0 to i8*) !dbg !9114 !xidane.fname !9115 !xidane.function_declaration_type !8414 !xidane.function_declaration_filename !8367 {
  %3 = alloca %class.ap_private.2*, align 4
  %4 = alloca i32, align 4
  %5 = alloca %class.ap_private.14, align 4
  %6 = alloca i8*
  %7 = alloca i32
  store %class.ap_private.2* %0, %class.ap_private.2** %3, align 4
  call void @llvm.dbg.declare(metadata %class.ap_private.2** %3, metadata !9116, metadata !8082), !dbg !9117
  store i32 %1, i32* %4, align 4
  call void @llvm.dbg.declare(metadata i32* %4, metadata !9118, metadata !8082), !dbg !9117
  %8 = load %class.ap_private.2*, %class.ap_private.2** %3, align 4, !dbg !9117
  %9 = load i32, i32* %4, align 4, !dbg !9117
  %10 = call %class.ap_private.14* @_ZN10ap_privateILi32ELb1ELb1EEC2Ei(%class.ap_private.14* %5, i32 %9), !dbg !9117
  %11 = invoke zeroext i1 @_ZNK10ap_privateILi2ELb0ELb1EEneILi32ELb1EEEbRKS_IXT_EXT0_EXleT_Li64EEE(%class.ap_private.2* %8, %class.ap_private.14* dereferenceable(4) %5)
          to label %12 unwind label %14, !dbg !9117

; <label>:12:                                     ; preds = %2
  %13 = call %class.ap_private.14* @_ZN10ap_privateILi32ELb1ELb1EED2Ev(%class.ap_private.14* %5) #3, !dbg !9119
  ret i1 %11, !dbg !9119

; <label>:14:                                     ; preds = %2
  %15 = landingpad { i8*, i32 }
          cleanup, !dbg !9121
  %16 = extractvalue { i8*, i32 } %15, 0, !dbg !9121
  store i8* %16, i8** %6, align 4, !dbg !9121
  %17 = extractvalue { i8*, i32 } %15, 1, !dbg !9121
  store i32 %17, i32* %7, align 4, !dbg !9121
  %18 = call %class.ap_private.14* @_ZN10ap_privateILi32ELb1ELb1EED2Ev(%class.ap_private.14* %5) #3, !dbg !9121
  br label %19, !dbg !9121

; <label>:19:                                     ; preds = %14
  %20 = load i8*, i8** %6, align 4, !dbg !9123
  %21 = load i32, i32* %7, align 4, !dbg !9123
  %22 = insertvalue { i8*, i32 } undef, i8* %20, 0, !dbg !9123
  %23 = insertvalue { i8*, i32 } %22, i32 %21, 1, !dbg !9123
  resume { i8*, i32 } %23, !dbg !9123
}

define void @_Z7load_khP6ap_intILi64EES1_jj(%class.ap_int*, %class.ap_int*, i32, i32) #0 !dbg !9125 !xidane.fname !9126 !xidane.function_declaration_type !8715 !xidane.function_declaration_filename !8094 {
  %5 = alloca %class.ap_int*, align 4
  %6 = alloca %class.ap_int*, align 4
  %7 = alloca i32, align 4
  %8 = alloca i32, align 4
  %9 = alloca i32, align 4
  %10 = alloca i32, align 4
  store %class.ap_int* %0, %class.ap_int** %5, align 4
  call void @llvm.dbg.declare(metadata %class.ap_int** %5, metadata !9127, metadata !8082), !dbg !9128
  store %class.ap_int* %1, %class.ap_int** %6, align 4
  call void @llvm.dbg.declare(metadata %class.ap_int** %6, metadata !9129, metadata !8082), !dbg !9130
  store i32 %2, i32* %7, align 4
  call void @llvm.dbg.declare(metadata i32* %7, metadata !9131, metadata !8082), !dbg !9132
  store i32 %3, i32* %8, align 4
  call void @llvm.dbg.declare(metadata i32* %8, metadata !9133, metadata !8082), !dbg !9134
  call void @llvm.dbg.declare(metadata i32* %9, metadata !9135, metadata !8082), !dbg !9136
  %11 = load i32, i32* %7, align 4, !dbg !9137
  %12 = udiv i32 %11, 4, !dbg !9138
  store i32 %12, i32* %9, align 4, !dbg !9136
  call void @llvm.dbg.declare(metadata i32* %10, metadata !9139, metadata !8082), !dbg !9141
  store i32 0, i32* %10, align 4, !dbg !9141
  br label %13, !dbg !9142

; <label>:13:                                     ; preds = %28, %4
  %14 = load i32, i32* %10, align 4, !dbg !9143
  %15 = mul i32 %14, 4, !dbg !9146
  %16 = load i32, i32* %8, align 4, !dbg !9147
  %17 = icmp ult i32 %15, %16, !dbg !9148
  br i1 %17, label %18, label %31, !dbg !9149

; <label>:18:                                     ; preds = %13
  %19 = load i32, i32* %10, align 4, !dbg !9150
  %20 = load %class.ap_int*, %class.ap_int** %6, align 4, !dbg !9152
  %21 = getelementptr inbounds %class.ap_int, %class.ap_int* %20, i32 %19, !dbg !9152
  %22 = load i32, i32* %9, align 4, !dbg !9153
  %23 = load i32, i32* %10, align 4, !dbg !9154
  %24 = add i32 %22, %23, !dbg !9155
  %25 = load %class.ap_int*, %class.ap_int** %5, align 4, !dbg !9156
  %26 = getelementptr inbounds %class.ap_int, %class.ap_int* %25, i32 %24, !dbg !9156
  %27 = call dereferenceable(8) %class.ap_int* @_ZN6ap_intILi64EEaSERKS0_(%class.ap_int* %21, %class.ap_int* dereferenceable(8) %26), !dbg !9157
  br label %28, !dbg !9158

; <label>:28:                                     ; preds = %18
  %29 = load i32, i32* %10, align 4, !dbg !9159
  %30 = add i32 %29, 1, !dbg !9159
  store i32 %30, i32* %10, align 4, !dbg !9159
  br label %13, !dbg !9161, !llvm.loop !9162

; <label>:31:                                     ; preds = %13
  ret void, !dbg !9164
}

; Function Attrs: inlinehint nounwind
define linkonce_odr %class.ap_uint* @_ZN7ap_uintILi3EED2Ev(%class.ap_uint* returned) unnamed_addr #7 comdat align 2 !dbg !9165 !xidane.fname !8694 !xidane.function_declaration_type !8034 !xidane.function_declaration_filename !8331 {
  %2 = alloca %class.ap_uint*, align 4
  store %class.ap_uint* %0, %class.ap_uint** %2, align 4
  call void @llvm.dbg.declare(metadata %class.ap_uint** %2, metadata !9167, metadata !8082), !dbg !9168
  %3 = load %class.ap_uint*, %class.ap_uint** %2, align 4
  %4 = bitcast %class.ap_uint* %3 to %class.ap_private.0*, !dbg !9169
  %5 = call %class.ap_private.0* @_ZN10ap_privateILi3ELb0ELb1EED2Ev(%class.ap_private.0* %4) #3, !dbg !9169
  ret %class.ap_uint* %3, !dbg !9171
}

define void @_Z18run_accel_scheduleP6ap_intILi64EES1_jjj7ap_uintILi1EERSt6vectorI9AccelInfoSaIS5_EE(%class.ap_int*, %class.ap_int*, i32, i32, i32, %class.ap_uint.3*, %"class.std::vector"* dereferenceable(12)) #0 personality i8* bitcast (i32 (...)* @__gxx_personality_v0 to i8*) !dbg !6183 !xidane.fname !9172 !xidane.function_declaration_type !9173 !xidane.function_declaration_filename !8094 {
  %8 = alloca %class.ap_int*, align 4
  %9 = alloca %class.ap_int*, align 4
  %10 = alloca i32, align 4
  %11 = alloca i32, align 4
  %12 = alloca i32, align 4
  %13 = alloca %"class.std::vector"*, align 4
  %14 = alloca i8*
  %15 = alloca i32
  %16 = alloca i32, align 4
  %17 = alloca i32, align 4
  %18 = alloca i32, align 4
  %19 = alloca i32, align 4
  %20 = alloca i32, align 4
  %21 = alloca %class.ap_uint.9, align 2
  %22 = alloca %class.ap_uint.9, align 2
  %23 = alloca %class.ap_uint.9, align 2
  %24 = alloca %class.ap_uint.9, align 2
  %25 = alloca %class.ap_uint, align 1
  %26 = alloca %class.ap_uint.3, align 1
  %27 = alloca %class.ap_uint.1, align 1
  %28 = alloca %class.ap_uint.1, align 1
  store %class.ap_int* %0, %class.ap_int** %8, align 4
  call void @llvm.dbg.declare(metadata %class.ap_int** %8, metadata !9174, metadata !8082), !dbg !9175
  store %class.ap_int* %1, %class.ap_int** %9, align 4
  call void @llvm.dbg.declare(metadata %class.ap_int** %9, metadata !9176, metadata !8082), !dbg !9177
  store i32 %2, i32* %10, align 4
  call void @llvm.dbg.declare(metadata i32* %10, metadata !9178, metadata !8082), !dbg !9179
  store i32 %3, i32* %11, align 4
  call void @llvm.dbg.declare(metadata i32* %11, metadata !9180, metadata !8082), !dbg !9181
  store i32 %4, i32* %12, align 4
  call void @llvm.dbg.declare(metadata i32* %12, metadata !9182, metadata !8082), !dbg !9183
  call void @llvm.dbg.declare(metadata %class.ap_uint.3* %5, metadata !9184, metadata !8106), !dbg !9185
  store %"class.std::vector"* %6, %"class.std::vector"** %13, align 4
  call void @llvm.dbg.declare(metadata %"class.std::vector"** %13, metadata !9186, metadata !8082), !dbg !9187
  %29 = load atomic i8, i8* bitcast (i32* @_ZGVZ18run_accel_scheduleP6ap_intILi64EES1_jjj7ap_uintILi1EERSt6vectorI9AccelInfoSaIS5_EEE4wt_i to i8*) acquire, align 4, !dbg !9188
  %30 = and i8 %29, 1, !dbg !9188
  %31 = icmp eq i8 %30, 0, !dbg !9188
  br i1 %31, label %32, label %39, !dbg !9188

; <label>:32:                                     ; preds = %7
  %33 = call i32 @__cxa_guard_acquire(i32* @_ZGVZ18run_accel_scheduleP6ap_intILi64EES1_jjj7ap_uintILi1EERSt6vectorI9AccelInfoSaIS5_EEE4wt_i) #3, !dbg !9189
  %34 = icmp ne i32 %33, 0, !dbg !9189
  br i1 %34, label %35, label %39, !dbg !9189

; <label>:35:                                     ; preds = %32
  %36 = invoke i8* @sds_alloc(i32 37456)
          to label %37 unwind label %61, !dbg !9191

; <label>:37:                                     ; preds = %35
  %38 = bitcast i8* %36 to %class.ap_int*, !dbg !9193
  store %class.ap_int* %38, %class.ap_int** @_ZZ18run_accel_scheduleP6ap_intILi64EES1_jjj7ap_uintILi1EERSt6vectorI9AccelInfoSaIS5_EEE4wt_i, align 4, !dbg !9195
  call void @__cxa_guard_release(i32* @_ZGVZ18run_accel_scheduleP6ap_intILi64EES1_jjj7ap_uintILi1EERSt6vectorI9AccelInfoSaIS5_EEE4wt_i) #3, !dbg !9195
  br label %39, !dbg !9195

; <label>:39:                                     ; preds = %37, %32, %7
  %40 = load atomic i8, i8* bitcast (i32* @_ZGVZ18run_accel_scheduleP6ap_intILi64EES1_jjj7ap_uintILi1EERSt6vectorI9AccelInfoSaIS5_EEE4kh_i to i8*) acquire, align 4, !dbg !9196
  %41 = and i8 %40, 1, !dbg !9196
  %42 = icmp eq i8 %41, 0, !dbg !9196
  br i1 %42, label %43, label %50, !dbg !9196

; <label>:43:                                     ; preds = %39
  %44 = call i32 @__cxa_guard_acquire(i32* @_ZGVZ18run_accel_scheduleP6ap_intILi64EES1_jjj7ap_uintILi1EERSt6vectorI9AccelInfoSaIS5_EEE4kh_i) #3, !dbg !9197
  %45 = icmp ne i32 %44, 0, !dbg !9197
  br i1 %45, label %46, label %50, !dbg !9197

; <label>:46:                                     ; preds = %43
  %47 = invoke i8* @sds_alloc(i32 512)
          to label %48 unwind label %65, !dbg !9198

; <label>:48:                                     ; preds = %46
  %49 = bitcast i8* %47 to %class.ap_int*, !dbg !9199
  store %class.ap_int* %49, %class.ap_int** @_ZZ18run_accel_scheduleP6ap_intILi64EES1_jjj7ap_uintILi1EERSt6vectorI9AccelInfoSaIS5_EEE4kh_i, align 4, !dbg !9200
  call void @__cxa_guard_release(i32* @_ZGVZ18run_accel_scheduleP6ap_intILi64EES1_jjj7ap_uintILi1EERSt6vectorI9AccelInfoSaIS5_EEE4kh_i) #3, !dbg !9200
  br label %50, !dbg !9200

; <label>:50:                                     ; preds = %48, %43, %39
  %51 = load %class.ap_int*, %class.ap_int** @_ZZ18run_accel_scheduleP6ap_intILi64EES1_jjj7ap_uintILi1EERSt6vectorI9AccelInfoSaIS5_EEE4wt_i, align 4, !dbg !9201
  %52 = icmp ne %class.ap_int* %51, null, !dbg !9201
  br i1 %52, label %53, label %56, !dbg !9203

; <label>:53:                                     ; preds = %50
  %54 = load %class.ap_int*, %class.ap_int** @_ZZ18run_accel_scheduleP6ap_intILi64EES1_jjj7ap_uintILi1EERSt6vectorI9AccelInfoSaIS5_EEE4kh_i, align 4, !dbg !9204
  %55 = icmp ne %class.ap_int* %54, null, !dbg !9204
  br i1 %55, label %69, label %56, !dbg !9206

; <label>:56:                                     ; preds = %53, %50
  %57 = load %struct._reent*, %struct._reent** @_impure_ptr, align 4, !dbg !9207
  %58 = getelementptr inbounds %struct._reent, %struct._reent* %57, i32 0, i32 3, !dbg !9207
  %59 = load %struct.__sFILE*, %struct.__sFILE** %58, align 4, !dbg !9207
  %60 = call i32 (%struct.__sFILE*, i8*, ...) @fprintf(%struct.__sFILE* %59, i8* getelementptr inbounds ([45 x i8], [45 x i8]* @.str.14, i32 0, i32 0), i8* getelementptr inbounds ([92 x i8], [92 x i8]* @.str.10, i32 0, i32 0)), !dbg !9209
  call void @exit(i32 -2) #14, !dbg !9210
  unreachable, !dbg !9210

; <label>:61:                                     ; preds = %35
  %62 = landingpad { i8*, i32 }
          cleanup, !dbg !9211
  %63 = extractvalue { i8*, i32 } %62, 0, !dbg !9211
  store i8* %63, i8** %14, align 4, !dbg !9211
  %64 = extractvalue { i8*, i32 } %62, 1, !dbg !9211
  store i32 %64, i32* %15, align 4, !dbg !9211
  call void @__cxa_guard_abort(i32* @_ZGVZ18run_accel_scheduleP6ap_intILi64EES1_jjj7ap_uintILi1EERSt6vectorI9AccelInfoSaIS5_EEE4wt_i) #3, !dbg !9212
  br label %242, !dbg !9212

; <label>:65:                                     ; preds = %46
  %66 = landingpad { i8*, i32 }
          cleanup, !dbg !9214
  %67 = extractvalue { i8*, i32 } %66, 0, !dbg !9214
  store i8* %67, i8** %14, align 4, !dbg !9214
  %68 = extractvalue { i8*, i32 } %66, 1, !dbg !9214
  store i32 %68, i32* %15, align 4, !dbg !9214
  call void @__cxa_guard_abort(i32* @_ZGVZ18run_accel_scheduleP6ap_intILi64EES1_jjj7ap_uintILi1EERSt6vectorI9AccelInfoSaIS5_EEE4kh_i) #3, !dbg !9215
  br label %242, !dbg !9215

; <label>:69:                                     ; preds = %53
  call void @llvm.dbg.declare(metadata i32* %16, metadata !9216, metadata !8082), !dbg !9217
  %70 = load %"class.std::vector"*, %"class.std::vector"** %13, align 4, !dbg !9218
  %71 = call i32 @_ZNKSt6vectorI9AccelInfoSaIS0_EE4sizeEv(%"class.std::vector"* %70) #3, !dbg !9219
  store i32 %71, i32* %16, align 4, !dbg !9217
  call void @llvm.dbg.declare(metadata i32* %17, metadata !9220, metadata !8082), !dbg !9221
  store i32 9, i32* %17, align 4, !dbg !9221
  call void @llvm.dbg.declare(metadata i32* %18, metadata !9222, metadata !8082), !dbg !9224
  store i32 0, i32* %18, align 4, !dbg !9224
  br label %72, !dbg !9225

; <label>:72:                                     ; preds = %187, %69
  %73 = load i32, i32* %18, align 4, !dbg !9226
  %74 = load i32, i32* %16, align 4, !dbg !9229
  %75 = icmp ult i32 %73, %74, !dbg !9230
  br i1 %75, label %76, label %237, !dbg !9231

; <label>:76:                                     ; preds = %72
  call void @llvm.dbg.declare(metadata i32* %19, metadata !9232, metadata !8082), !dbg !9235
  store i32 0, i32* %19, align 4, !dbg !9235
  br label %77, !dbg !9236

; <label>:77:                                     ; preds = %92, %76
  %78 = load i32, i32* %19, align 4, !dbg !9237
  %79 = icmp ult i32 %78, 4682, !dbg !9240
  br i1 %79, label %80, label %95, !dbg !9241

; <label>:80:                                     ; preds = %77
  %81 = load i32, i32* %19, align 4, !dbg !9242
  %82 = load %class.ap_int*, %class.ap_int** @_ZZ18run_accel_scheduleP6ap_intILi64EES1_jjj7ap_uintILi1EERSt6vectorI9AccelInfoSaIS5_EEE4wt_i, align 4, !dbg !9243
  %83 = getelementptr inbounds %class.ap_int, %class.ap_int* %82, i32 %81, !dbg !9243
  %84 = load i32, i32* %19, align 4, !dbg !9244
  %85 = load %"class.std::vector"*, %"class.std::vector"** %13, align 4, !dbg !9245
  %86 = load i32, i32* %18, align 4, !dbg !9246
  %87 = call dereferenceable(20) %struct.AccelInfo* @_ZNSt6vectorI9AccelInfoSaIS0_EEixEj(%"class.std::vector"* %85, i32 %86) #3, !dbg !9245
  %88 = getelementptr inbounds %struct.AccelInfo, %struct.AccelInfo* %87, i32 0, i32 0, !dbg !9247
  %89 = load %class.ap_int*, %class.ap_int** %88, align 4, !dbg !9247
  %90 = getelementptr inbounds %class.ap_int, %class.ap_int* %89, i32 %84, !dbg !9245
  %91 = call dereferenceable(8) %class.ap_int* @_ZN6ap_intILi64EEaSERKS0_(%class.ap_int* %83, %class.ap_int* dereferenceable(8) %90), !dbg !9248
  br label %92, !dbg !9243

; <label>:92:                                     ; preds = %80
  %93 = load i32, i32* %19, align 4, !dbg !9249
  %94 = add i32 %93, 1, !dbg !9249
  store i32 %94, i32* %19, align 4, !dbg !9249
  br label %77, !dbg !9251, !llvm.loop !9252

; <label>:95:                                     ; preds = %77
  call void @llvm.dbg.declare(metadata i32* %20, metadata !9254, metadata !8082), !dbg !9256
  store i32 0, i32* %20, align 4, !dbg !9256
  br label %96, !dbg !9257

; <label>:96:                                     ; preds = %111, %95
  %97 = load i32, i32* %20, align 4, !dbg !9258
  %98 = icmp ult i32 %97, 64, !dbg !9261
  br i1 %98, label %99, label %114, !dbg !9262

; <label>:99:                                     ; preds = %96
  %100 = load i32, i32* %20, align 4, !dbg !9263
  %101 = load %class.ap_int*, %class.ap_int** @_ZZ18run_accel_scheduleP6ap_intILi64EES1_jjj7ap_uintILi1EERSt6vectorI9AccelInfoSaIS5_EEE4kh_i, align 4, !dbg !9264
  %102 = getelementptr inbounds %class.ap_int, %class.ap_int* %101, i32 %100, !dbg !9264
  %103 = load i32, i32* %20, align 4, !dbg !9265
  %104 = load %"class.std::vector"*, %"class.std::vector"** %13, align 4, !dbg !9266
  %105 = load i32, i32* %18, align 4, !dbg !9267
  %106 = call dereferenceable(20) %struct.AccelInfo* @_ZNSt6vectorI9AccelInfoSaIS0_EEixEj(%"class.std::vector"* %104, i32 %105) #3, !dbg !9266
  %107 = getelementptr inbounds %struct.AccelInfo, %struct.AccelInfo* %106, i32 0, i32 1, !dbg !9268
  %108 = load %class.ap_int*, %class.ap_int** %107, align 4, !dbg !9268
  %109 = getelementptr inbounds %class.ap_int, %class.ap_int* %108, i32 %103, !dbg !9266
  %110 = call dereferenceable(8) %class.ap_int* @_ZN6ap_intILi64EEaSERKS0_(%class.ap_int* %102, %class.ap_int* dereferenceable(8) %109), !dbg !9269
  br label %111, !dbg !9264

; <label>:111:                                    ; preds = %99
  %112 = load i32, i32* %20, align 4, !dbg !9270
  %113 = add i32 %112, 1, !dbg !9270
  store i32 %113, i32* %20, align 4, !dbg !9270
  br label %96, !dbg !9272, !llvm.loop !9273

; <label>:114:                                    ; preds = %96
  %115 = load i32, i32* %10, align 4, !dbg !9275
  %116 = sub i32 8, %115, !dbg !9276
  %117 = getelementptr inbounds [9 x %class.Timer], [9 x %class.Timer]* @_ZL6timers, i32 0, i32 %116, !dbg !9277
  call void @_ZN5Timer5startEv(%class.Timer* %117), !dbg !9278
  %118 = load %class.ap_int*, %class.ap_int** @_ZZ18run_accel_scheduleP6ap_intILi64EES1_jjj7ap_uintILi1EERSt6vectorI9AccelInfoSaIS5_EEE4wt_i, align 4, !dbg !9279
  %119 = load %class.ap_int*, %class.ap_int** @_ZZ18run_accel_scheduleP6ap_intILi64EES1_jjj7ap_uintILi1EERSt6vectorI9AccelInfoSaIS5_EEE4kh_i, align 4, !dbg !9280
  %120 = load %class.ap_int*, %class.ap_int** %8, align 4, !dbg !9281
  %121 = load %class.ap_int*, %class.ap_int** %9, align 4, !dbg !9282
  %122 = load %"class.std::vector"*, %"class.std::vector"** %13, align 4, !dbg !9283
  %123 = load i32, i32* %18, align 4, !dbg !9284
  %124 = call dereferenceable(20) %struct.AccelInfo* @_ZNSt6vectorI9AccelInfoSaIS0_EEixEj(%"class.std::vector"* %122, i32 %123) #3, !dbg !9283
  %125 = getelementptr inbounds %struct.AccelInfo, %struct.AccelInfo* %124, i32 0, i32 2, !dbg !9285
  %126 = load i32, i32* %125, align 4, !dbg !9285
  %127 = call %class.ap_uint.9* @_ZN7ap_uintILi16EEC2Ej(%class.ap_uint.9* %21, i32 %126), !dbg !9286
  %128 = load %"class.std::vector"*, %"class.std::vector"** %13, align 4, !dbg !9288
  %129 = load i32, i32* %18, align 4, !dbg !9289
  %130 = call dereferenceable(20) %struct.AccelInfo* @_ZNSt6vectorI9AccelInfoSaIS0_EEixEj(%"class.std::vector"* %128, i32 %129) #3, !dbg !9290
  %131 = getelementptr inbounds %struct.AccelInfo, %struct.AccelInfo* %130, i32 0, i32 3, !dbg !9292
  %132 = load i32, i32* %131, align 4, !dbg !9292
  %133 = invoke %class.ap_uint.9* @_ZN7ap_uintILi16EEC2Ej(%class.ap_uint.9* %22, i32 %132)
          to label %134 unwind label %190, !dbg !9288

; <label>:134:                                    ; preds = %114
  %135 = load i32, i32* %18, align 4, !dbg !9293
  %136 = icmp eq i32 %135, 0, !dbg !9294
  br i1 %136, label %137, label %139, !dbg !9295

; <label>:137:                                    ; preds = %134
  %138 = load i32, i32* %11, align 4, !dbg !9296
  br label %140, !dbg !9297

; <label>:139:                                    ; preds = %134
  br label %140, !dbg !9298

; <label>:140:                                    ; preds = %139, %137
  %141 = phi i32 [ %138, %137 ], [ 0, %139 ], !dbg !9299
  %142 = invoke %class.ap_uint.9* @_ZN7ap_uintILi16EEC2Ej(%class.ap_uint.9* %23, i32 %141)
          to label %143 unwind label %194, !dbg !9299

; <label>:143:                                    ; preds = %140
  %144 = load i32, i32* %18, align 4, !dbg !9301
  %145 = load i32, i32* %16, align 4, !dbg !9302
  %146 = sub i32 %145, 1, !dbg !9303
  %147 = icmp eq i32 %144, %146, !dbg !9304
  br i1 %147, label %148, label %150, !dbg !9305

; <label>:148:                                    ; preds = %143
  %149 = load i32, i32* %12, align 4, !dbg !9306
  br label %151, !dbg !9307

; <label>:150:                                    ; preds = %143
  br label %151, !dbg !9308

; <label>:151:                                    ; preds = %150, %148
  %152 = phi i32 [ %149, %148 ], [ 0, %150 ], !dbg !9309
  %153 = invoke %class.ap_uint.9* @_ZN7ap_uintILi16EEC2Ej(%class.ap_uint.9* %24, i32 %152)
          to label %154 unwind label %198, !dbg !9309

; <label>:154:                                    ; preds = %151
  %155 = load %"class.std::vector"*, %"class.std::vector"** %13, align 4, !dbg !9310
  %156 = load i32, i32* %18, align 4, !dbg !9311
  %157 = call dereferenceable(20) %struct.AccelInfo* @_ZNSt6vectorI9AccelInfoSaIS0_EEixEj(%"class.std::vector"* %155, i32 %156) #3, !dbg !9310
  %158 = getelementptr inbounds %struct.AccelInfo, %struct.AccelInfo* %157, i32 0, i32 4, !dbg !9312
  %159 = invoke %class.ap_uint* @_ZN7ap_uintILi3EEC2ERKS0_(%class.ap_uint* %25, %class.ap_uint* dereferenceable(1) %158)
          to label %160 unwind label %202, !dbg !9310

; <label>:160:                                    ; preds = %154
  %161 = invoke %class.ap_uint.3* @_ZN7ap_uintILi1EEC2ERKS0_(%class.ap_uint.3* %26, %class.ap_uint.3* dereferenceable(1) %5)
          to label %162 unwind label %206, !dbg !9313

; <label>:162:                                    ; preds = %160
  %163 = load %"class.std::vector"*, %"class.std::vector"** %13, align 4, !dbg !9314
  %164 = load i32, i32* %18, align 4, !dbg !9315
  %165 = call dereferenceable(20) %struct.AccelInfo* @_ZNSt6vectorI9AccelInfoSaIS0_EEixEj(%"class.std::vector"* %163, i32 %164) #3, !dbg !9314
  %166 = getelementptr inbounds %struct.AccelInfo, %struct.AccelInfo* %165, i32 0, i32 5, !dbg !9316
  %167 = invoke %class.ap_uint.1* @_ZN7ap_uintILi2EEC2ERKS0_(%class.ap_uint.1* %27, %class.ap_uint.1* dereferenceable(1) %166)
          to label %168 unwind label %210, !dbg !9314

; <label>:168:                                    ; preds = %162
  %169 = load %"class.std::vector"*, %"class.std::vector"** %13, align 4, !dbg !9317
  %170 = load i32, i32* %18, align 4, !dbg !9318
  %171 = call dereferenceable(20) %struct.AccelInfo* @_ZNSt6vectorI9AccelInfoSaIS0_EEixEj(%"class.std::vector"* %169, i32 %170) #3, !dbg !9317
  %172 = getelementptr inbounds %struct.AccelInfo, %struct.AccelInfo* %171, i32 0, i32 6, !dbg !9319
  %173 = invoke %class.ap_uint.1* @_ZN7ap_uintILi2EEC2ERKS0_(%class.ap_uint.1* %28, %class.ap_uint.1* dereferenceable(1) %172)
          to label %174 unwind label %214, !dbg !9317

; <label>:174:                                    ; preds = %168
  invoke void @_Z3topP6ap_intILi64EES1_S1_S1_7ap_uintILi16EES3_S3_S3_S2_ILi3EES2_ILi1EES2_ILi2EES6_(%class.ap_int* %118, %class.ap_int* %119, %class.ap_int* %120, %class.ap_int* %121, %class.ap_uint.9* %21, %class.ap_uint.9* %22, %class.ap_uint.9* %23, %class.ap_uint.9* %24, %class.ap_uint* %25, %class.ap_uint.3* %26, %class.ap_uint.1* %27, %class.ap_uint.1* %28)
          to label %175 unwind label %218, !dbg !9320

; <label>:175:                                    ; preds = %174
  %176 = call %class.ap_uint.1* @_ZN7ap_uintILi2EED2Ev(%class.ap_uint.1* %28) #3, !dbg !9321
  %177 = call %class.ap_uint.1* @_ZN7ap_uintILi2EED2Ev(%class.ap_uint.1* %27) #3, !dbg !9322
  %178 = call %class.ap_uint.3* @_ZN7ap_uintILi1EED2Ev(%class.ap_uint.3* %26) #3, !dbg !9324
  %179 = call %class.ap_uint* @_ZN7ap_uintILi3EED2Ev(%class.ap_uint* %25) #3, !dbg !9326
  %180 = call %class.ap_uint.9* @_ZN7ap_uintILi16EED2Ev(%class.ap_uint.9* %24) #3, !dbg !9328
  %181 = call %class.ap_uint.9* @_ZN7ap_uintILi16EED2Ev(%class.ap_uint.9* %23) #3, !dbg !9330
  %182 = call %class.ap_uint.9* @_ZN7ap_uintILi16EED2Ev(%class.ap_uint.9* %22) #3, !dbg !9332
  %183 = call %class.ap_uint.9* @_ZN7ap_uintILi16EED2Ev(%class.ap_uint.9* %21) #3, !dbg !9334
  %184 = load i32, i32* %10, align 4, !dbg !9336
  %185 = sub i32 8, %184, !dbg !9337
  %186 = getelementptr inbounds [9 x %class.Timer], [9 x %class.Timer]* @_ZL6timers, i32 0, i32 %185, !dbg !9338
  call void @_ZN5Timer4stopEv(%class.Timer* %186), !dbg !9339
  br label %187, !dbg !9340

; <label>:187:                                    ; preds = %175
  %188 = load i32, i32* %18, align 4, !dbg !9341
  %189 = add i32 %188, 1, !dbg !9341
  store i32 %189, i32* %18, align 4, !dbg !9341
  br label %72, !dbg !9343, !llvm.loop !9344

; <label>:190:                                    ; preds = %114
  %191 = landingpad { i8*, i32 }
          cleanup, !dbg !9346
  %192 = extractvalue { i8*, i32 } %191, 0, !dbg !9346
  store i8* %192, i8** %14, align 4, !dbg !9346
  %193 = extractvalue { i8*, i32 } %191, 1, !dbg !9346
  store i32 %193, i32* %15, align 4, !dbg !9346
  br label %235, !dbg !9346

; <label>:194:                                    ; preds = %140
  %195 = landingpad { i8*, i32 }
          cleanup, !dbg !9347
  %196 = extractvalue { i8*, i32 } %195, 0, !dbg !9347
  store i8* %196, i8** %14, align 4, !dbg !9347
  %197 = extractvalue { i8*, i32 } %195, 1, !dbg !9347
  store i32 %197, i32* %15, align 4, !dbg !9347
  br label %233, !dbg !9347

; <label>:198:                                    ; preds = %151
  %199 = landingpad { i8*, i32 }
          cleanup, !dbg !9348
  %200 = extractvalue { i8*, i32 } %199, 0, !dbg !9348
  store i8* %200, i8** %14, align 4, !dbg !9348
  %201 = extractvalue { i8*, i32 } %199, 1, !dbg !9348
  store i32 %201, i32* %15, align 4, !dbg !9348
  br label %231, !dbg !9348

; <label>:202:                                    ; preds = %154
  %203 = landingpad { i8*, i32 }
          cleanup, !dbg !9350
  %204 = extractvalue { i8*, i32 } %203, 0, !dbg !9350
  store i8* %204, i8** %14, align 4, !dbg !9350
  %205 = extractvalue { i8*, i32 } %203, 1, !dbg !9350
  store i32 %205, i32* %15, align 4, !dbg !9350
  br label %229, !dbg !9350

; <label>:206:                                    ; preds = %160
  %207 = landingpad { i8*, i32 }
          cleanup, !dbg !9352
  %208 = extractvalue { i8*, i32 } %207, 0, !dbg !9352
  store i8* %208, i8** %14, align 4, !dbg !9352
  %209 = extractvalue { i8*, i32 } %207, 1, !dbg !9352
  store i32 %209, i32* %15, align 4, !dbg !9352
  br label %227, !dbg !9352

; <label>:210:                                    ; preds = %162
  %211 = landingpad { i8*, i32 }
          cleanup, !dbg !9354
  %212 = extractvalue { i8*, i32 } %211, 0, !dbg !9354
  store i8* %212, i8** %14, align 4, !dbg !9354
  %213 = extractvalue { i8*, i32 } %211, 1, !dbg !9354
  store i32 %213, i32* %15, align 4, !dbg !9354
  br label %225, !dbg !9354

; <label>:214:                                    ; preds = %168
  %215 = landingpad { i8*, i32 }
          cleanup, !dbg !9356
  %216 = extractvalue { i8*, i32 } %215, 0, !dbg !9356
  store i8* %216, i8** %14, align 4, !dbg !9356
  %217 = extractvalue { i8*, i32 } %215, 1, !dbg !9356
  store i32 %217, i32* %15, align 4, !dbg !9356
  br label %223, !dbg !9356

; <label>:218:                                    ; preds = %174
  %219 = landingpad { i8*, i32 }
          cleanup, !dbg !9358
  %220 = extractvalue { i8*, i32 } %219, 0, !dbg !9358
  store i8* %220, i8** %14, align 4, !dbg !9358
  %221 = extractvalue { i8*, i32 } %219, 1, !dbg !9358
  store i32 %221, i32* %15, align 4, !dbg !9358
  %222 = call %class.ap_uint.1* @_ZN7ap_uintILi2EED2Ev(%class.ap_uint.1* %28) #3, !dbg !9360
  br label %223, !dbg !9360

; <label>:223:                                    ; preds = %218, %214
  %224 = call %class.ap_uint.1* @_ZN7ap_uintILi2EED2Ev(%class.ap_uint.1* %27) #3, !dbg !9361
  br label %225, !dbg !9361

; <label>:225:                                    ; preds = %223, %210
  %226 = call %class.ap_uint.3* @_ZN7ap_uintILi1EED2Ev(%class.ap_uint.3* %26) #3, !dbg !9362
  br label %227, !dbg !9362

; <label>:227:                                    ; preds = %225, %206
  %228 = call %class.ap_uint* @_ZN7ap_uintILi3EED2Ev(%class.ap_uint* %25) #3, !dbg !9363
  br label %229, !dbg !9363

; <label>:229:                                    ; preds = %227, %202
  %230 = call %class.ap_uint.9* @_ZN7ap_uintILi16EED2Ev(%class.ap_uint.9* %24) #3, !dbg !9364
  br label %231, !dbg !9364

; <label>:231:                                    ; preds = %229, %198
  %232 = call %class.ap_uint.9* @_ZN7ap_uintILi16EED2Ev(%class.ap_uint.9* %23) #3, !dbg !9365
  br label %233, !dbg !9365

; <label>:233:                                    ; preds = %231, %194
  %234 = call %class.ap_uint.9* @_ZN7ap_uintILi16EED2Ev(%class.ap_uint.9* %22) #3, !dbg !9366
  br label %235, !dbg !9366

; <label>:235:                                    ; preds = %233, %190
  %236 = call %class.ap_uint.9* @_ZN7ap_uintILi16EED2Ev(%class.ap_uint.9* %21) #3, !dbg !9367
  br label %242, !dbg !9367

; <label>:237:                                    ; preds = %72
  %238 = load %class.ap_int*, %class.ap_int** @_ZZ18run_accel_scheduleP6ap_intILi64EES1_jjj7ap_uintILi1EERSt6vectorI9AccelInfoSaIS5_EEE4wt_i, align 4, !dbg !9368
  %239 = bitcast %class.ap_int* %238 to i8*, !dbg !9368
  call void @sds_free(i8* %239), !dbg !9368
  %240 = load %class.ap_int*, %class.ap_int** @_ZZ18run_accel_scheduleP6ap_intILi64EES1_jjj7ap_uintILi1EERSt6vectorI9AccelInfoSaIS5_EEE4kh_i, align 4, !dbg !9369
  %241 = bitcast %class.ap_int* %240 to i8*, !dbg !9369
  call void @sds_free(i8* %241), !dbg !9369
  ret void, !dbg !9370

; <label>:242:                                    ; preds = %235, %65, %61
  %243 = load i8*, i8** %14, align 4, !dbg !9372
  %244 = load i32, i32* %15, align 4, !dbg !9372
  %245 = insertvalue { i8*, i32 } undef, i8* %243, 0, !dbg !9372
  %246 = insertvalue { i8*, i32 } %245, i32 %244, 1, !dbg !9372
  resume { i8*, i32 } %246, !dbg !9372
}

; Function Attrs: nounwind
declare i32 @__cxa_guard_acquire(i32*) #3

declare !xidane.fname !9374 !xidane.function_declaration_type !9375 !xidane.function_declaration_filename !9376 !xidane.ExternC !8327 i8* @sds_alloc(i32) #1

; Function Attrs: nounwind
declare void @__cxa_guard_abort(i32*) #3

; Function Attrs: nounwind
declare void @__cxa_guard_release(i32*) #3

declare !xidane.fname !9377 !xidane.function_declaration_type !9378 !xidane.function_declaration_filename !9379 !xidane.ExternC !8327 i32 @fprintf(%struct.__sFILE*, i8*, ...) #1

; Function Attrs: noreturn
declare !xidane.fname !9380 !xidane.function_declaration_type !8338 !xidane.function_declaration_filename !9381 !xidane.ExternC !8327 void @exit(i32) #5

; Function Attrs: nounwind
define linkonce_odr i32 @_ZNKSt6vectorI9AccelInfoSaIS0_EE4sizeEv(%"class.std::vector"*) #8 comdat align 2 !dbg !9382 !xidane.fname !9383 !xidane.function_declaration_type !9384 !xidane.function_declaration_filename !8575 {
  %2 = alloca %"class.std::vector"*, align 4
  store %"class.std::vector"* %0, %"class.std::vector"** %2, align 4
  call void @llvm.dbg.declare(metadata %"class.std::vector"** %2, metadata !9385, metadata !8082), !dbg !9387
  %3 = load %"class.std::vector"*, %"class.std::vector"** %2, align 4
  %4 = bitcast %"class.std::vector"* %3 to %"struct.std::_Vector_base"*, !dbg !9388
  %5 = getelementptr inbounds %"struct.std::_Vector_base", %"struct.std::_Vector_base"* %4, i32 0, i32 0, !dbg !9388
  %6 = getelementptr inbounds %"struct.std::_Vector_base<AccelInfo, std::allocator<AccelInfo> >::_Vector_impl", %"struct.std::_Vector_base<AccelInfo, std::allocator<AccelInfo> >::_Vector_impl"* %5, i32 0, i32 1, !dbg !9389
  %7 = load %struct.AccelInfo*, %struct.AccelInfo** %6, align 4, !dbg !9389
  %8 = bitcast %"class.std::vector"* %3 to %"struct.std::_Vector_base"*, !dbg !9390
  %9 = getelementptr inbounds %"struct.std::_Vector_base", %"struct.std::_Vector_base"* %8, i32 0, i32 0, !dbg !9390
  %10 = getelementptr inbounds %"struct.std::_Vector_base<AccelInfo, std::allocator<AccelInfo> >::_Vector_impl", %"struct.std::_Vector_base<AccelInfo, std::allocator<AccelInfo> >::_Vector_impl"* %9, i32 0, i32 0, !dbg !9391
  %11 = load %struct.AccelInfo*, %struct.AccelInfo** %10, align 4, !dbg !9391
  %12 = ptrtoint %struct.AccelInfo* %7 to i32, !dbg !9392
  %13 = ptrtoint %struct.AccelInfo* %11 to i32, !dbg !9392
  %14 = sub i32 %12, %13, !dbg !9392
  %15 = sdiv exact i32 %14, 20, !dbg !9392
  ret i32 %15, !dbg !9393
}

; Function Attrs: inlinehint
define linkonce_odr dereferenceable(8) %class.ap_int* @_ZN6ap_intILi64EEaSERKS0_(%class.ap_int*, %class.ap_int* dereferenceable(8)) #6 comdat align 2 !dbg !9394 !xidane.fname !8614 !xidane.function_declaration_type !9395 !xidane.function_declaration_filename !8331 {
  %3 = alloca %class.ap_int*, align 4
  %4 = alloca %class.ap_int*, align 4
  store %class.ap_int* %0, %class.ap_int** %3, align 4
  call void @llvm.dbg.declare(metadata %class.ap_int** %3, metadata !9396, metadata !8082), !dbg !9398
  store %class.ap_int* %1, %class.ap_int** %4, align 4
  call void @llvm.dbg.declare(metadata %class.ap_int** %4, metadata !9399, metadata !8082), !dbg !9400
  %5 = load %class.ap_int*, %class.ap_int** %3, align 4
  %6 = bitcast %class.ap_int* %5 to %class.ap_private*, !dbg !9401
  %7 = load %class.ap_int*, %class.ap_int** %4, align 4, !dbg !9402
  %8 = bitcast %class.ap_int* %7 to %class.ap_private*, !dbg !9402
  %9 = call dereferenceable(8) %class.ap_private* @_ZN10ap_privateILi64ELb1ELb1EEaSERKS0_(%class.ap_private* %6, %class.ap_private* dereferenceable(8) %8), !dbg !9401
  ret %class.ap_int* %5, !dbg !9403
}

declare !xidane.fname !9404 !xidane.function_declaration_type !8034 !xidane.function_declaration_filename !8078 void @_ZN5Timer5startEv(%class.Timer*) #1

declare !xidane.fname !9405 !xidane.function_declaration_type !9406 !xidane.function_declaration_filename !9407 !xidane.function_argument_annotation !9408 void @_Z3topP6ap_intILi64EES1_S1_S1_7ap_uintILi16EES3_S3_S3_S2_ILi3EES2_ILi1EES2_ILi2EES6_(%class.ap_int*, %class.ap_int*, %class.ap_int*, %class.ap_int*, %class.ap_uint.9*, %class.ap_uint.9*, %class.ap_uint.9*, %class.ap_uint.9*, %class.ap_uint*, %class.ap_uint.3*, %class.ap_uint.1*, %class.ap_uint.1*) #1

; Function Attrs: inlinehint
define linkonce_odr %class.ap_uint.9* @_ZN7ap_uintILi16EEC2Ej(%class.ap_uint.9* returned, i32) unnamed_addr #6 comdat align 2 !dbg !9409 !xidane.fname !8329 !xidane.function_declaration_type !8330 !xidane.function_declaration_filename !8331 {
  %3 = alloca %class.ap_uint.9*, align 4
  %4 = alloca i32, align 4
  store %class.ap_uint.9* %0, %class.ap_uint.9** %3, align 4
  call void @llvm.dbg.declare(metadata %class.ap_uint.9** %3, metadata !9491, metadata !8082), !dbg !9493
  store i32 %1, i32* %4, align 4
  call void @llvm.dbg.declare(metadata i32* %4, metadata !9494, metadata !8082), !dbg !9495
  %5 = load %class.ap_uint.9*, %class.ap_uint.9** %3, align 4
  %6 = bitcast %class.ap_uint.9* %5 to %class.ap_private.10*, !dbg !9495
  %7 = load i32, i32* %4, align 4, !dbg !9495
  %8 = call %class.ap_private.10* @_ZN10ap_privateILi16ELb0ELb1EEC2Ej(%class.ap_private.10* %6, i32 %7), !dbg !9495
  ret %class.ap_uint.9* %5, !dbg !9495
}

; Function Attrs: inlinehint nounwind
define linkonce_odr %class.ap_uint* @_ZN7ap_uintILi3EEC2ERKS0_(%class.ap_uint* returned, %class.ap_uint* dereferenceable(1)) unnamed_addr #7 comdat align 2 !dbg !9496 !xidane.fname !8329 !xidane.function_declaration_type !9497 !xidane.function_declaration_filename !8331 {
  %3 = alloca %class.ap_uint*, align 4
  %4 = alloca %class.ap_uint*, align 4
  store %class.ap_uint* %0, %class.ap_uint** %3, align 4
  call void @llvm.dbg.declare(metadata %class.ap_uint** %3, metadata !9498, metadata !8082), !dbg !9499
  store %class.ap_uint* %1, %class.ap_uint** %4, align 4
  call void @llvm.dbg.declare(metadata %class.ap_uint** %4, metadata !9500, metadata !8082), !dbg !9501
  %5 = load %class.ap_uint*, %class.ap_uint** %3, align 4
  %6 = bitcast %class.ap_uint* %5 to %class.ap_private.0*, !dbg !9502
  %7 = load %class.ap_uint*, %class.ap_uint** %4, align 4, !dbg !9503
  %8 = bitcast %class.ap_uint* %7 to %class.ap_private.0*, !dbg !9504
  %9 = bitcast %class.ap_private.0* %6 to i8*, !dbg !9505
  %10 = bitcast %class.ap_private.0* %8 to i8*, !dbg !9505
  call void @llvm.memcpy.p0i8.p0i8.i32(i8* %9, i8* %10, i32 1, i32 1, i1 false), !dbg !9505
  ret %class.ap_uint* %5, !dbg !9506
}

; Function Attrs: inlinehint nounwind
define linkonce_odr %class.ap_uint.3* @_ZN7ap_uintILi1EEC2ERKS0_(%class.ap_uint.3* returned, %class.ap_uint.3* dereferenceable(1)) unnamed_addr #7 comdat align 2 !dbg !9507 !xidane.fname !8329 !xidane.function_declaration_type !9508 !xidane.function_declaration_filename !8331 {
  %3 = alloca %class.ap_uint.3*, align 4
  %4 = alloca %class.ap_uint.3*, align 4
  store %class.ap_uint.3* %0, %class.ap_uint.3** %3, align 4
  call void @llvm.dbg.declare(metadata %class.ap_uint.3** %3, metadata !9509, metadata !8082), !dbg !9511
  store %class.ap_uint.3* %1, %class.ap_uint.3** %4, align 4
  call void @llvm.dbg.declare(metadata %class.ap_uint.3** %4, metadata !9512, metadata !8082), !dbg !9513
  %5 = load %class.ap_uint.3*, %class.ap_uint.3** %3, align 4
  %6 = bitcast %class.ap_uint.3* %5 to %class.ap_private.4*, !dbg !9514
  %7 = load %class.ap_uint.3*, %class.ap_uint.3** %4, align 4, !dbg !9515
  %8 = bitcast %class.ap_uint.3* %7 to %class.ap_private.4*, !dbg !9516
  %9 = bitcast %class.ap_private.4* %6 to i8*, !dbg !9517
  %10 = bitcast %class.ap_private.4* %8 to i8*, !dbg !9517
  call void @llvm.memcpy.p0i8.p0i8.i32(i8* %9, i8* %10, i32 1, i32 1, i1 false), !dbg !9517
  ret %class.ap_uint.3* %5, !dbg !9518
}

; Function Attrs: inlinehint nounwind
define linkonce_odr %class.ap_uint.1* @_ZN7ap_uintILi2EEC2ERKS0_(%class.ap_uint.1* returned, %class.ap_uint.1* dereferenceable(1)) unnamed_addr #7 comdat align 2 !dbg !9519 !xidane.fname !8329 !xidane.function_declaration_type !9520 !xidane.function_declaration_filename !8331 {
  %3 = alloca %class.ap_uint.1*, align 4
  %4 = alloca %class.ap_uint.1*, align 4
  store %class.ap_uint.1* %0, %class.ap_uint.1** %3, align 4
  call void @llvm.dbg.declare(metadata %class.ap_uint.1** %3, metadata !9521, metadata !8082), !dbg !9522
  store %class.ap_uint.1* %1, %class.ap_uint.1** %4, align 4
  call void @llvm.dbg.declare(metadata %class.ap_uint.1** %4, metadata !9523, metadata !8082), !dbg !9524
  %5 = load %class.ap_uint.1*, %class.ap_uint.1** %3, align 4
  %6 = bitcast %class.ap_uint.1* %5 to %class.ap_private.2*, !dbg !9525
  %7 = load %class.ap_uint.1*, %class.ap_uint.1** %4, align 4, !dbg !9526
  %8 = bitcast %class.ap_uint.1* %7 to %class.ap_private.2*, !dbg !9527
  %9 = bitcast %class.ap_private.2* %6 to i8*, !dbg !9528
  %10 = bitcast %class.ap_private.2* %8 to i8*, !dbg !9528
  call void @llvm.memcpy.p0i8.p0i8.i32(i8* %9, i8* %10, i32 1, i32 1, i1 false), !dbg !9528
  ret %class.ap_uint.1* %5, !dbg !9529
}

; Function Attrs: inlinehint nounwind
define linkonce_odr %class.ap_uint.3* @_ZN7ap_uintILi1EED2Ev(%class.ap_uint.3* returned) unnamed_addr #7 comdat align 2 !dbg !9530 !xidane.fname !8694 !xidane.function_declaration_type !8034 !xidane.function_declaration_filename !8331 {
  %2 = alloca %class.ap_uint.3*, align 4
  store %class.ap_uint.3* %0, %class.ap_uint.3** %2, align 4
  call void @llvm.dbg.declare(metadata %class.ap_uint.3** %2, metadata !9532, metadata !8082), !dbg !9533
  %3 = load %class.ap_uint.3*, %class.ap_uint.3** %2, align 4
  %4 = bitcast %class.ap_uint.3* %3 to %class.ap_private.4*, !dbg !9534
  %5 = call %class.ap_private.4* @_ZN10ap_privateILi1ELb0ELb1EED2Ev(%class.ap_private.4* %4) #3, !dbg !9534
  ret %class.ap_uint.3* %3, !dbg !9536
}

; Function Attrs: inlinehint nounwind
define linkonce_odr %class.ap_uint.9* @_ZN7ap_uintILi16EED2Ev(%class.ap_uint.9* returned) unnamed_addr #7 comdat align 2 !dbg !9537 !xidane.fname !8694 !xidane.function_declaration_type !8034 !xidane.function_declaration_filename !8331 {
  %2 = alloca %class.ap_uint.9*, align 4
  store %class.ap_uint.9* %0, %class.ap_uint.9** %2, align 4
  call void @llvm.dbg.declare(metadata %class.ap_uint.9** %2, metadata !9539, metadata !8082), !dbg !9540
  %3 = load %class.ap_uint.9*, %class.ap_uint.9** %2, align 4
  %4 = bitcast %class.ap_uint.9* %3 to %class.ap_private.10*, !dbg !9541
  %5 = call %class.ap_private.10* @_ZN10ap_privateILi16ELb0ELb1EED2Ev(%class.ap_private.10* %4) #3, !dbg !9541
  ret %class.ap_uint.9* %3, !dbg !9543
}

declare !xidane.fname !9544 !xidane.function_declaration_type !8034 !xidane.function_declaration_filename !8078 void @_ZN5Timer4stopEv(%class.Timer*) #1

declare !xidane.fname !9545 !xidane.function_declaration_type !9546 !xidane.function_declaration_filename !9376 !xidane.ExternC !8327 void @sds_free(i8*) #1

; Function Attrs: inlinehint
define linkonce_odr void @_ZNK10ap_privateILi64ELb1ELb1EErsEj(%class.ap_private* noalias sret, %class.ap_private*, i32) #6 comdat align 2 !dbg !9547 !xidane.fname !9548 !xidane.function_declaration_type !9549 !xidane.function_declaration_filename !8347 {
  %4 = alloca %class.ap_private*, align 4
  %5 = alloca i32, align 4
  store %class.ap_private* %1, %class.ap_private** %4, align 4
  call void @llvm.dbg.declare(metadata %class.ap_private** %4, metadata !9550, metadata !8082), !dbg !9552
  store i32 %2, i32* %5, align 4
  call void @llvm.dbg.declare(metadata i32* %5, metadata !9553, metadata !8082), !dbg !9554
  %6 = load %class.ap_private*, %class.ap_private** %4, align 4
  %7 = load i32, i32* %5, align 4, !dbg !9555
  %8 = icmp uge i32 %7, 64, !dbg !9555
  br i1 %8, label %9, label %15, !dbg !9554

; <label>:9:                                      ; preds = %3
  %10 = call zeroext i1 @_ZNK10ap_privateILi64ELb1ELb1EE10isNegativeEv(%class.ap_private* %6), !dbg !9557
  br i1 %10, label %11, label %13, !dbg !9557

; <label>:11:                                     ; preds = %9
  %12 = call %class.ap_private* @_ZN10ap_privateILi64ELb1ELb1EEC2Ei(%class.ap_private* %0, i32 -1), !dbg !9561
  br label %17, !dbg !9561

; <label>:13:                                     ; preds = %9
  %14 = call %class.ap_private* @_ZN10ap_privateILi64ELb1ELb1EEC2Ei(%class.ap_private* %0, i32 0), !dbg !9563
  br label %17, !dbg !9563

; <label>:15:                                     ; preds = %3
  %16 = load i32, i32* %5, align 4, !dbg !9565
  call void @_ZNK10ap_privateILi64ELb1ELb1EE4ashrEj(%class.ap_private* sret %0, %class.ap_private* %6, i32 %16), !dbg !9565
  br label %17, !dbg !9565

; <label>:17:                                     ; preds = %15, %13, %11
  ret void, !dbg !9568
}

; Function Attrs: inlinehint nounwind
define linkonce_odr %class.ap_int* @_ZN6ap_intILi64EEC2ILi64ELb1EEERK10ap_privateIXT_EXT0_EXleT_Li64EEE(%class.ap_int* returned, %class.ap_private* dereferenceable(8)) unnamed_addr #7 comdat align 2 !dbg !9570 !xidane.fname !9576 !xidane.function_declaration_type !9577 !xidane.function_declaration_filename !8331 {
  %3 = alloca %class.ap_int*, align 4
  %4 = alloca %class.ap_private*, align 4
  store %class.ap_int* %0, %class.ap_int** %3, align 4
  call void @llvm.dbg.declare(metadata %class.ap_int** %3, metadata !9578, metadata !8082), !dbg !9579
  store %class.ap_private* %1, %class.ap_private** %4, align 4
  call void @llvm.dbg.declare(metadata %class.ap_private** %4, metadata !9580, metadata !8082), !dbg !9581
  %5 = load %class.ap_int*, %class.ap_int** %3, align 4
  %6 = bitcast %class.ap_int* %5 to %class.ap_private*, !dbg !9582
  %7 = load %class.ap_private*, %class.ap_private** %4, align 4, !dbg !9583
  %8 = bitcast %class.ap_private* %6 to i8*, !dbg !9584
  %9 = bitcast %class.ap_private* %7 to i8*, !dbg !9584
  call void @llvm.memcpy.p0i8.p0i8.i32(i8* %8, i8* %9, i32 8, i32 8, i1 false), !dbg !9584
  ret %class.ap_int* %5, !dbg !9585
}

; Function Attrs: inlinehint nounwind
define linkonce_odr %class.ap_private* @_ZN10ap_privateILi64ELb1ELb1EED2Ev(%class.ap_private* returned) unnamed_addr #7 comdat align 2 personality i8* bitcast (i32 (...)* @__gxx_personality_v0 to i8*) !dbg !9586 !xidane.fname !8701 !xidane.function_declaration_type !8034 !xidane.function_declaration_filename !8347 {
  %2 = alloca %class.ap_private*, align 4
  store %class.ap_private* %0, %class.ap_private** %2, align 4
  call void @llvm.dbg.declare(metadata %class.ap_private** %2, metadata !9587, metadata !8082), !dbg !9588
  %3 = load %class.ap_private*, %class.ap_private** %2, align 4
  invoke void @_ZN10ap_privateILi64ELb1ELb1EE12check_canaryEv(%class.ap_private* %3)
          to label %4 unwind label %5, !dbg !9589

; <label>:4:                                      ; preds = %1
  ret %class.ap_private* %3, !dbg !9591

; <label>:5:                                      ; preds = %1
  %6 = landingpad { i8*, i32 }
          catch i8* null, !dbg !9593
  %7 = extractvalue { i8*, i32 } %6, 0, !dbg !9593
  call void @__clang_call_terminate(i8* %7) #11, !dbg !9593
  unreachable, !dbg !9593
}

; Function Attrs: inlinehint
define linkonce_odr %class.ap_int* @_ZN6ap_intILi64EEC2Ev(%class.ap_int* returned) unnamed_addr #6 comdat align 2 !dbg !9595 !xidane.fname !9596 !xidane.function_declaration_type !8034 !xidane.function_declaration_filename !8331 {
  %2 = alloca %class.ap_int*, align 4
  store %class.ap_int* %0, %class.ap_int** %2, align 4
  call void @llvm.dbg.declare(metadata %class.ap_int** %2, metadata !9597, metadata !8082), !dbg !9598
  %3 = load %class.ap_int*, %class.ap_int** %2, align 4
  %4 = bitcast %class.ap_int* %3 to %class.ap_private*, !dbg !9599
  %5 = call %class.ap_private* @_ZN10ap_privateILi64ELb1ELb1EEC2Ev(%class.ap_private* %4), !dbg !9600
  ret %class.ap_int* %3, !dbg !9601
}

; Function Attrs: inlinehint nounwind
define linkonce_odr %class.ap_int* @_ZN6ap_intILi64EED2Ev(%class.ap_int* returned) unnamed_addr #7 comdat align 2 !dbg !9602 !xidane.fname !9604 !xidane.function_declaration_type !8034 !xidane.function_declaration_filename !8331 {
  %2 = alloca %class.ap_int*, align 4
  store %class.ap_int* %0, %class.ap_int** %2, align 4
  call void @llvm.dbg.declare(metadata %class.ap_int** %2, metadata !9605, metadata !8082), !dbg !9606
  %3 = load %class.ap_int*, %class.ap_int** %2, align 4
  %4 = bitcast %class.ap_int* %3 to %class.ap_private*, !dbg !9607
  %5 = call %class.ap_private* @_ZN10ap_privateILi64ELb1ELb1EED2Ev(%class.ap_private* %4) #3, !dbg !9607
  ret %class.ap_int* %3, !dbg !9609
}

; Function Attrs: inlinehint
define linkonce_odr void @_ZN10ap_privateILi64ELb1ELb1EEclEii(%struct.ap_range_ref.11* noalias sret, %class.ap_private*, i32, i32) #6 comdat align 2 !dbg !9610 !xidane.fname !8345 !xidane.function_declaration_type !9611 !xidane.function_declaration_filename !8347 {
  %5 = alloca %class.ap_private*, align 4
  %6 = alloca i32, align 4
  %7 = alloca i32, align 4
  store %class.ap_private* %1, %class.ap_private** %5, align 4
  call void @llvm.dbg.declare(metadata %class.ap_private** %5, metadata !9612, metadata !8082), !dbg !9613
  store i32 %2, i32* %6, align 4
  call void @llvm.dbg.declare(metadata i32* %6, metadata !9614, metadata !8082), !dbg !9615
  store i32 %3, i32* %7, align 4
  call void @llvm.dbg.declare(metadata i32* %7, metadata !9616, metadata !8082), !dbg !9617
  %8 = load %class.ap_private*, %class.ap_private** %5, align 4
  %9 = load i32, i32* %6, align 4, !dbg !9618
  %10 = load i32, i32* %7, align 4, !dbg !9619
  %11 = call %struct.ap_range_ref.11* @_ZN12ap_range_refILi64ELb1EEC2EP10ap_privateILi64ELb1ELb1EEii(%struct.ap_range_ref.11* %0, %class.ap_private* %8, i32 %9, i32 %10), !dbg !9620
  ret void, !dbg !9621
}

; Function Attrs: inlinehint
define linkonce_odr dereferenceable(12) %struct.ap_range_ref.11* @_ZN12ap_range_refILi64ELb1EEaSERKS0_(%struct.ap_range_ref.11*, %struct.ap_range_ref.11* dereferenceable(12)) #6 comdat align 2 personality i8* bitcast (i32 (...)* @__gxx_personality_v0 to i8*) !dbg !9622 !xidane.fname !8614 !xidane.function_declaration_type !9623 !xidane.function_declaration_filename !8367 {
  %3 = alloca %struct.ap_range_ref.11*, align 4
  %4 = alloca %struct.ap_range_ref.11*, align 4
  %5 = alloca %class.ap_private.13, align 8
  %6 = alloca i8*
  %7 = alloca i32
  store %struct.ap_range_ref.11* %0, %struct.ap_range_ref.11** %3, align 4
  call void @llvm.dbg.declare(metadata %struct.ap_range_ref.11** %3, metadata !9624, metadata !8082), !dbg !9626
  store %struct.ap_range_ref.11* %1, %struct.ap_range_ref.11** %4, align 4
  call void @llvm.dbg.declare(metadata %struct.ap_range_ref.11** %4, metadata !9627, metadata !8082), !dbg !9628
  %8 = load %struct.ap_range_ref.11*, %struct.ap_range_ref.11** %3, align 4
  call void @llvm.dbg.declare(metadata %class.ap_private.13* %5, metadata !9629, metadata !8082), !dbg !9630
  %9 = load %struct.ap_range_ref.11*, %struct.ap_range_ref.11** %4, align 4, !dbg !9631
  %10 = call %class.ap_private.13* @_ZN10ap_privateILi64ELb0ELb1EEC2ILi64ELb1EEERK12ap_range_refIXT_EXT0_EE(%class.ap_private.13* %5, %struct.ap_range_ref.11* dereferenceable(12) %9), !dbg !9630
  %11 = invoke dereferenceable(12) %struct.ap_range_ref.11* @_ZN12ap_range_refILi64ELb1EEaSILi64ELb0EEERS0_RK10ap_privateIXT_EXT0_EXleT_Li64EEE(%struct.ap_range_ref.11* %8, %class.ap_private.13* dereferenceable(8) %5)
          to label %12 unwind label %14, !dbg !9632

; <label>:12:                                     ; preds = %2
  %13 = call %class.ap_private.13* @_ZN10ap_privateILi64ELb0ELb1EED2Ev(%class.ap_private.13* %5) #3, !dbg !9633
  ret %struct.ap_range_ref.11* %11, !dbg !9633

; <label>:14:                                     ; preds = %2
  %15 = landingpad { i8*, i32 }
          cleanup, !dbg !9634
  %16 = extractvalue { i8*, i32 } %15, 0, !dbg !9634
  store i8* %16, i8** %6, align 4, !dbg !9634
  %17 = extractvalue { i8*, i32 } %15, 1, !dbg !9634
  store i32 %17, i32* %7, align 4, !dbg !9634
  %18 = call %class.ap_private.13* @_ZN10ap_privateILi64ELb0ELb1EED2Ev(%class.ap_private.13* %5) #3, !dbg !9634
  br label %19, !dbg !9634

; <label>:19:                                     ; preds = %14
  %20 = load i8*, i8** %6, align 4, !dbg !9636
  %21 = load i32, i32* %7, align 4, !dbg !9636
  %22 = insertvalue { i8*, i32 } undef, i8* %20, 0, !dbg !9636
  %23 = insertvalue { i8*, i32 } %22, i32 %21, 1, !dbg !9636
  resume { i8*, i32 } %23, !dbg !9636
}

declare !xidane.fname !9638 !xidane.function_declaration_type !9639 !xidane.function_declaration_filename !9640 i32 @_Z12WTS_TO_WORDSj(i32) #1

; Function Attrs: inlinehint nounwind
define linkonce_odr %class.ap_int* @_ZN6ap_intILi64EEC2Ei(%class.ap_int* returned, i32) unnamed_addr #7 comdat align 2 !dbg !9641 !xidane.fname !9596 !xidane.function_declaration_type !8338 !xidane.function_declaration_filename !8331 {
  %3 = alloca %class.ap_int*, align 4
  %4 = alloca i32, align 4
  store %class.ap_int* %0, %class.ap_int** %3, align 4
  call void @llvm.dbg.declare(metadata %class.ap_int** %3, metadata !9642, metadata !8082), !dbg !9643
  store i32 %1, i32* %4, align 4
  call void @llvm.dbg.declare(metadata i32* %4, metadata !9644, metadata !8082), !dbg !9645
  %5 = load %class.ap_int*, %class.ap_int** %3, align 4
  %6 = bitcast %class.ap_int* %5 to %class.ap_private*, !dbg !9645
  %7 = load i32, i32* %4, align 4, !dbg !9645
  %8 = call %class.ap_private* @_ZN10ap_privateILi64ELb1ELb1EEC2Ei(%class.ap_private* %6, i32 %7), !dbg !9645
  ret %class.ap_int* %5, !dbg !9645
}

define float @_Z10total_timev() #0 !dbg !9646 !xidane.fname !9649 !xidane.function_declaration_type !9650 !xidane.function_declaration_filename !8094 {
  %1 = alloca float, align 4
  %2 = alloca i32, align 4
  call void @llvm.dbg.declare(metadata float* %1, metadata !9651, metadata !8082), !dbg !9652
  store float 0.000000e+00, float* %1, align 4, !dbg !9652
  call void @llvm.dbg.declare(metadata i32* %2, metadata !9653, metadata !8082), !dbg !9655
  store i32 0, i32* %2, align 4, !dbg !9655
  br label %3, !dbg !9656

; <label>:3:                                      ; preds = %12, %0
  %4 = load i32, i32* %2, align 4, !dbg !9657
  %5 = icmp ult i32 %4, 9, !dbg !9660
  br i1 %5, label %6, label %15, !dbg !9661

; <label>:6:                                      ; preds = %3
  %7 = load i32, i32* %2, align 4, !dbg !9662
  %8 = getelementptr inbounds [9 x %class.Timer], [9 x %class.Timer]* @_ZL6timers, i32 0, i32 %7, !dbg !9664
  %9 = call float @_ZN5Timer8get_timeEv(%class.Timer* %8), !dbg !9665
  %10 = load float, float* %1, align 4, !dbg !9666
  %11 = fadd float %10, %9, !dbg !9666
  store float %11, float* %1, align 4, !dbg !9666
  br label %12, !dbg !9667

; <label>:12:                                     ; preds = %6
  %13 = load i32, i32* %2, align 4, !dbg !9668
  %14 = add i32 %13, 1, !dbg !9668
  store i32 %14, i32* %2, align 4, !dbg !9668
  br label %3, !dbg !9670, !llvm.loop !9671

; <label>:15:                                     ; preds = %3
  %16 = load float, float* %1, align 4, !dbg !9673
  ret float %16, !dbg !9674
}

declare !xidane.fname !9675 !xidane.function_declaration_type !9650 !xidane.function_declaration_filename !8078 float @_ZN5Timer8get_timeEv(%class.Timer*) #1

; Function Attrs: nounwind
define linkonce_odr void @_ZN10ap_privateILi2ELb0ELb1EE12check_canaryEv(%class.ap_private.2*) #8 comdat align 2 !dbg !9676 !xidane.fname !9677 !xidane.function_declaration_type !8034 !xidane.function_declaration_filename !8347 {
  %2 = alloca %class.ap_private.2*, align 4
  store %class.ap_private.2* %0, %class.ap_private.2** %2, align 4
  call void @llvm.dbg.declare(metadata %class.ap_private.2** %2, metadata !9678, metadata !8082), !dbg !9679
  %3 = load %class.ap_private.2*, %class.ap_private.2** %2, align 4
  ret void, !dbg !9680
}

; Function Attrs: noinline noreturn nounwind
define linkonce_odr hidden void @__clang_call_terminate(i8*) #9 comdat {
  %2 = call i8* @__cxa_begin_catch(i8* %0) #3
  call void @_ZSt9terminatev() #11
  unreachable
}

declare i8* @__cxa_begin_catch(i8*)

declare void @_ZSt9terminatev()

; Function Attrs: nounwind
define linkonce_odr void @_ZN10ap_privateILi3ELb0ELb1EE12check_canaryEv(%class.ap_private.0*) #8 comdat align 2 !dbg !9681 !xidane.fname !9677 !xidane.function_declaration_type !8034 !xidane.function_declaration_filename !8347 {
  %2 = alloca %class.ap_private.0*, align 4
  store %class.ap_private.0* %0, %class.ap_private.0** %2, align 4
  call void @llvm.dbg.declare(metadata %class.ap_private.0** %2, metadata !9682, metadata !8082), !dbg !9683
  %3 = load %class.ap_private.0*, %class.ap_private.0** %2, align 4
  ret void, !dbg !9684
}

; Function Attrs: inlinehint nounwind
define linkonce_odr %class.ap_private.4* @_ZN10ap_privateILi1ELb0ELb1EED2Ev(%class.ap_private.4* returned) unnamed_addr #7 comdat align 2 personality i8* bitcast (i32 (...)* @__gxx_personality_v0 to i8*) !dbg !9685 !xidane.fname !8701 !xidane.function_declaration_type !8034 !xidane.function_declaration_filename !8347 {
  %2 = alloca %class.ap_private.4*, align 4
  store %class.ap_private.4* %0, %class.ap_private.4** %2, align 4
  call void @llvm.dbg.declare(metadata %class.ap_private.4** %2, metadata !9686, metadata !8082), !dbg !9688
  %3 = load %class.ap_private.4*, %class.ap_private.4** %2, align 4
  invoke void @_ZN10ap_privateILi1ELb0ELb1EE12check_canaryEv(%class.ap_private.4* %3)
          to label %4 unwind label %5, !dbg !9689

; <label>:4:                                      ; preds = %1
  ret %class.ap_private.4* %3, !dbg !9691

; <label>:5:                                      ; preds = %1
  %6 = landingpad { i8*, i32 }
          catch i8* null, !dbg !9693
  %7 = extractvalue { i8*, i32 } %6, 0, !dbg !9693
  call void @__clang_call_terminate(i8* %7) #11, !dbg !9693
  unreachable, !dbg !9693
}

; Function Attrs: nounwind
define linkonce_odr void @_ZN10ap_privateILi1ELb0ELb1EE12check_canaryEv(%class.ap_private.4*) #8 comdat align 2 !dbg !9695 !xidane.fname !9677 !xidane.function_declaration_type !8034 !xidane.function_declaration_filename !8347 {
  %2 = alloca %class.ap_private.4*, align 4
  store %class.ap_private.4* %0, %class.ap_private.4** %2, align 4
  call void @llvm.dbg.declare(metadata %class.ap_private.4** %2, metadata !9696, metadata !8082), !dbg !9697
  %3 = load %class.ap_private.4*, %class.ap_private.4** %2, align 4
  ret void, !dbg !9698
}

; Function Attrs: inlinehint nounwind
define linkonce_odr %class.ap_private.10* @_ZN10ap_privateILi16ELb0ELb1EED2Ev(%class.ap_private.10* returned) unnamed_addr #7 comdat align 2 personality i8* bitcast (i32 (...)* @__gxx_personality_v0 to i8*) !dbg !9699 !xidane.fname !8701 !xidane.function_declaration_type !8034 !xidane.function_declaration_filename !8347 {
  %2 = alloca %class.ap_private.10*, align 4
  store %class.ap_private.10* %0, %class.ap_private.10** %2, align 4
  call void @llvm.dbg.declare(metadata %class.ap_private.10** %2, metadata !9700, metadata !8082), !dbg !9702
  %3 = load %class.ap_private.10*, %class.ap_private.10** %2, align 4
  invoke void @_ZN10ap_privateILi16ELb0ELb1EE12check_canaryEv(%class.ap_private.10* %3)
          to label %4 unwind label %5, !dbg !9703

; <label>:4:                                      ; preds = %1
  ret %class.ap_private.10* %3, !dbg !9705

; <label>:5:                                      ; preds = %1
  %6 = landingpad { i8*, i32 }
          catch i8* null, !dbg !9707
  %7 = extractvalue { i8*, i32 } %6, 0, !dbg !9707
  call void @__clang_call_terminate(i8* %7) #11, !dbg !9707
  unreachable, !dbg !9707
}

; Function Attrs: nounwind
define linkonce_odr void @_ZN10ap_privateILi16ELb0ELb1EE12check_canaryEv(%class.ap_private.10*) #8 comdat align 2 !dbg !9709 !xidane.fname !9677 !xidane.function_declaration_type !8034 !xidane.function_declaration_filename !8347 {
  %2 = alloca %class.ap_private.10*, align 4
  store %class.ap_private.10* %0, %class.ap_private.10** %2, align 4
  call void @llvm.dbg.declare(metadata %class.ap_private.10** %2, metadata !9710, metadata !8082), !dbg !9711
  %3 = load %class.ap_private.10*, %class.ap_private.10** %2, align 4
  ret void, !dbg !9712
}

; Function Attrs: nounwind
define linkonce_odr void @_ZN10ap_privateILi64ELb1ELb1EE12check_canaryEv(%class.ap_private*) #8 comdat align 2 !dbg !9713 !xidane.fname !9677 !xidane.function_declaration_type !8034 !xidane.function_declaration_filename !8347 {
  %2 = alloca %class.ap_private*, align 4
  store %class.ap_private* %0, %class.ap_private** %2, align 4
  call void @llvm.dbg.declare(metadata %class.ap_private** %2, metadata !9714, metadata !8082), !dbg !9715
  %3 = load %class.ap_private*, %class.ap_private** %2, align 4
  ret void, !dbg !9716
}

; Function Attrs: inlinehint
define linkonce_odr %class.ap_private* @_ZN10ap_privateILi64ELb1ELb1EEC2Ev(%class.ap_private* returned) unnamed_addr #6 comdat align 2 !dbg !9717 !xidane.fname !9718 !xidane.function_declaration_type !8034 !xidane.function_declaration_filename !8347 {
  %2 = alloca %class.ap_private*, align 4
  store %class.ap_private* %0, %class.ap_private** %2, align 4
  call void @llvm.dbg.declare(metadata %class.ap_private** %2, metadata !9719, metadata !8082), !dbg !9720
  %3 = load %class.ap_private*, %class.ap_private** %2, align 4
  call void @_ZN10ap_privateILi64ELb1ELb1EE5clearEv(%class.ap_private* %3), !dbg !9721
  call void @_ZN10ap_privateILi64ELb1ELb1EE10set_canaryEv(%class.ap_private* %3), !dbg !9723
  call void @_ZN10ap_privateILi64ELb1ELb1EE15clearUnusedBitsEv(%class.ap_private* %3), !dbg !9724
  call void @_ZN10ap_privateILi64ELb1ELb1EE12check_canaryEv(%class.ap_private* %3), !dbg !9725
  ret %class.ap_private* %3, !dbg !9726
}

; Function Attrs: inlinehint nounwind
define linkonce_odr void @_ZN10ap_privateILi64ELb1ELb1EE5clearEv(%class.ap_private*) #7 comdat align 2 !dbg !9727 !xidane.fname !9728 !xidane.function_declaration_type !8034 !xidane.function_declaration_filename !8347 {
  %2 = alloca %class.ap_private*, align 4
  store %class.ap_private* %0, %class.ap_private** %2, align 4
  call void @llvm.dbg.declare(metadata %class.ap_private** %2, metadata !9729, metadata !8082), !dbg !9730
  %3 = load %class.ap_private*, %class.ap_private** %2, align 4
  %4 = getelementptr inbounds %class.ap_private, %class.ap_private* %3, i32 0, i32 0, !dbg !9731
  store i64 0, i64* %4, align 8, !dbg !9732
  ret void, !dbg !9733
}

; Function Attrs: nounwind
define linkonce_odr void @_ZN10ap_privateILi64ELb1ELb1EE10set_canaryEv(%class.ap_private*) #8 comdat align 2 !dbg !9734 !xidane.fname !9735 !xidane.function_declaration_type !8034 !xidane.function_declaration_filename !8347 {
  %2 = alloca %class.ap_private*, align 4
  store %class.ap_private* %0, %class.ap_private** %2, align 4
  call void @llvm.dbg.declare(metadata %class.ap_private** %2, metadata !9736, metadata !8082), !dbg !9737
  %3 = load %class.ap_private*, %class.ap_private** %2, align 4
  ret void, !dbg !9738
}

; Function Attrs: inlinehint nounwind
define linkonce_odr void @_ZN10ap_privateILi64ELb1ELb1EE15clearUnusedBitsEv(%class.ap_private*) #7 comdat align 2 !dbg !22 !xidane.fname !9739 !xidane.function_declaration_type !8034 !xidane.function_declaration_filename !8347 {
  %2 = alloca %class.ap_private*, align 4
  store %class.ap_private* %0, %class.ap_private** %2, align 4
  call void @llvm.dbg.declare(metadata %class.ap_private** %2, metadata !9740, metadata !8082), !dbg !9741
  %3 = load %class.ap_private*, %class.ap_private** %2, align 4
  %4 = getelementptr inbounds %class.ap_private, %class.ap_private* %3, i32 0, i32 0, !dbg !9742
  %5 = load i64, i64* %4, align 8, !dbg !9742
  %6 = shl i64 %5, 0, !dbg !9743
  %7 = ashr i64 %6, 0, !dbg !9744
  %8 = getelementptr inbounds %class.ap_private, %class.ap_private* %3, i32 0, i32 0, !dbg !9745
  store i64 %7, i64* %8, align 8, !dbg !9746
  ret void, !dbg !9747
}

; Function Attrs: inlinehint
define linkonce_odr %class.ap_private.2* @_ZN10ap_privateILi2ELb0ELb1EEC2Ej(%class.ap_private.2* returned, i32) unnamed_addr #6 comdat align 2 !dbg !9748 !xidane.fname !9718 !xidane.function_declaration_type !8330 !xidane.function_declaration_filename !8347 {
  %3 = alloca %class.ap_private.2*, align 4
  %4 = alloca i32, align 4
  store %class.ap_private.2* %0, %class.ap_private.2** %3, align 4
  call void @llvm.dbg.declare(metadata %class.ap_private.2** %3, metadata !9749, metadata !8082), !dbg !9750
  store i32 %1, i32* %4, align 4
  call void @llvm.dbg.declare(metadata i32* %4, metadata !9751, metadata !8082), !dbg !9752
  %5 = load %class.ap_private.2*, %class.ap_private.2** %3, align 4
  %6 = getelementptr inbounds %class.ap_private.2, %class.ap_private.2* %5, i32 0, i32 0, !dbg !9752
  %7 = load i32, i32* %4, align 4, !dbg !9752
  %8 = trunc i32 %7 to i8, !dbg !9752
  store i8 %8, i8* %6, align 1, !dbg !9752
  call void @_ZN10ap_privateILi2ELb0ELb1EE10set_canaryEv(%class.ap_private.2* %5), !dbg !9753
  call void @_ZN10ap_privateILi2ELb0ELb1EE15clearUnusedBitsEv(%class.ap_private.2* %5), !dbg !9755
  call void @_ZN10ap_privateILi2ELb0ELb1EE12check_canaryEv(%class.ap_private.2* %5), !dbg !9757
  ret %class.ap_private.2* %5, !dbg !9752
}

; Function Attrs: nounwind
define linkonce_odr void @_ZN10ap_privateILi2ELb0ELb1EE10set_canaryEv(%class.ap_private.2*) #8 comdat align 2 !dbg !9759 !xidane.fname !9735 !xidane.function_declaration_type !8034 !xidane.function_declaration_filename !8347 {
  %2 = alloca %class.ap_private.2*, align 4
  store %class.ap_private.2* %0, %class.ap_private.2** %2, align 4
  call void @llvm.dbg.declare(metadata %class.ap_private.2** %2, metadata !9760, metadata !8082), !dbg !9761
  %3 = load %class.ap_private.2*, %class.ap_private.2** %2, align 4
  ret void, !dbg !9762
}

; Function Attrs: inlinehint nounwind
define linkonce_odr void @_ZN10ap_privateILi2ELb0ELb1EE15clearUnusedBitsEv(%class.ap_private.2*) #7 comdat align 2 !dbg !997 !xidane.fname !9739 !xidane.function_declaration_type !8034 !xidane.function_declaration_filename !8347 {
  %2 = alloca %class.ap_private.2*, align 4
  store %class.ap_private.2* %0, %class.ap_private.2** %2, align 4
  call void @llvm.dbg.declare(metadata %class.ap_private.2** %2, metadata !9763, metadata !8082), !dbg !9764
  %3 = load %class.ap_private.2*, %class.ap_private.2** %2, align 4
  %4 = getelementptr inbounds %class.ap_private.2, %class.ap_private.2* %3, i32 0, i32 0, !dbg !9765
  %5 = load i8, i8* %4, align 1, !dbg !9765
  %6 = zext i8 %5 to i64, !dbg !9765
  %7 = shl i64 %6, 62, !dbg !9766
  %8 = lshr i64 %7, 62, !dbg !9767
  %9 = trunc i64 %8 to i8, !dbg !9768
  %10 = getelementptr inbounds %class.ap_private.2, %class.ap_private.2* %3, i32 0, i32 0, !dbg !9769
  store i8 %9, i8* %10, align 1, !dbg !9770
  ret void, !dbg !9771
}

; Function Attrs: argmemonly nounwind
declare void @llvm.memcpy.p0i8.p0i8.i32(i8* nocapture writeonly, i8* nocapture readonly, i32, i32, i1) #10

; Function Attrs: nounwind
define linkonce_odr void @_ZN10ap_privateILi3ELb0ELb1EE10set_canaryEv(%class.ap_private.0*) #8 comdat align 2 !dbg !9772 !xidane.fname !9735 !xidane.function_declaration_type !8034 !xidane.function_declaration_filename !8347 {
  %2 = alloca %class.ap_private.0*, align 4
  store %class.ap_private.0* %0, %class.ap_private.0** %2, align 4
  call void @llvm.dbg.declare(metadata %class.ap_private.0** %2, metadata !9773, metadata !8082), !dbg !9774
  %3 = load %class.ap_private.0*, %class.ap_private.0** %2, align 4
  ret void, !dbg !9775
}

; Function Attrs: inlinehint nounwind
define linkonce_odr void @_ZN10ap_privateILi3ELb0ELb1EE15clearUnusedBitsEv(%class.ap_private.0*) #7 comdat align 2 !dbg !1463 !xidane.fname !9739 !xidane.function_declaration_type !8034 !xidane.function_declaration_filename !8347 {
  %2 = alloca %class.ap_private.0*, align 4
  store %class.ap_private.0* %0, %class.ap_private.0** %2, align 4
  call void @llvm.dbg.declare(metadata %class.ap_private.0** %2, metadata !9776, metadata !8082), !dbg !9777
  %3 = load %class.ap_private.0*, %class.ap_private.0** %2, align 4
  %4 = getelementptr inbounds %class.ap_private.0, %class.ap_private.0* %3, i32 0, i32 0, !dbg !9778
  %5 = load i8, i8* %4, align 1, !dbg !9778
  %6 = zext i8 %5 to i64, !dbg !9778
  %7 = shl i64 %6, 61, !dbg !9779
  %8 = lshr i64 %7, 61, !dbg !9780
  %9 = trunc i64 %8 to i8, !dbg !9781
  %10 = getelementptr inbounds %class.ap_private.0, %class.ap_private.0* %3, i32 0, i32 0, !dbg !9782
  store i8 %9, i8* %10, align 1, !dbg !9783
  ret void, !dbg !9784
}

; Function Attrs: inlinehint
define linkonce_odr %struct.ap_range_ref* @_ZN12ap_range_refILi3ELb0EEC2EP10ap_privateILi3ELb0ELb1EEii(%struct.ap_range_ref* returned, %class.ap_private.0*, i32, i32) unnamed_addr #6 comdat align 2 !dbg !9785 !xidane.fname !9786 !xidane.function_declaration_type !9787 !xidane.function_declaration_filename !8367 {
  %5 = alloca %struct.ap_range_ref*, align 4
  %6 = alloca %struct.ap_range_ref*, align 4
  %7 = alloca %class.ap_private.0*, align 4
  %8 = alloca i32, align 4
  %9 = alloca i32, align 4
  store %struct.ap_range_ref* %0, %struct.ap_range_ref** %6, align 4
  call void @llvm.dbg.declare(metadata %struct.ap_range_ref** %6, metadata !9788, metadata !8082), !dbg !9789
  store %class.ap_private.0* %1, %class.ap_private.0** %7, align 4
  call void @llvm.dbg.declare(metadata %class.ap_private.0** %7, metadata !9790, metadata !8082), !dbg !9791
  store i32 %2, i32* %8, align 4
  call void @llvm.dbg.declare(metadata i32* %8, metadata !9792, metadata !8082), !dbg !9793
  store i32 %3, i32* %9, align 4
  call void @llvm.dbg.declare(metadata i32* %9, metadata !9794, metadata !8082), !dbg !9795
  %10 = load %struct.ap_range_ref*, %struct.ap_range_ref** %6, align 4
  store %struct.ap_range_ref* %10, %struct.ap_range_ref** %5, align 4
  %11 = getelementptr inbounds %struct.ap_range_ref, %struct.ap_range_ref* %10, i32 0, i32 0, !dbg !9796
  %12 = load %class.ap_private.0*, %class.ap_private.0** %7, align 4, !dbg !9797
  store %class.ap_private.0* %12, %class.ap_private.0** %11, align 4, !dbg !9796
  %13 = getelementptr inbounds %struct.ap_range_ref, %struct.ap_range_ref* %10, i32 0, i32 1, !dbg !9798
  %14 = load i32, i32* %9, align 4, !dbg !9799
  store i32 %14, i32* %13, align 4, !dbg !9798
  %15 = getelementptr inbounds %struct.ap_range_ref, %struct.ap_range_ref* %10, i32 0, i32 2, !dbg !9800
  %16 = load i32, i32* %8, align 4, !dbg !9801
  store i32 %16, i32* %15, align 4, !dbg !9800
  %17 = load i32, i32* %8, align 4, !dbg !9802
  %18 = icmp slt i32 %17, 0, !dbg !9805
  br i1 %18, label %22, label %19, !dbg !9806

; <label>:19:                                     ; preds = %4
  %20 = load i32, i32* %9, align 4, !dbg !9807
  %21 = icmp slt i32 %20, 0, !dbg !9809
  br i1 %21, label %22, label %29, !dbg !9810

; <label>:22:                                     ; preds = %19, %4
  %23 = load %struct._reent*, %struct._reent** @_impure_ptr, align 4, !dbg !9811
  %24 = getelementptr inbounds %struct._reent, %struct._reent* %23, i32 0, i32 3, !dbg !9811
  %25 = load %struct.__sFILE*, %struct.__sFILE** %24, align 4, !dbg !9811
  %26 = load i32, i32* %8, align 4, !dbg !9812
  %27 = load i32, i32* %9, align 4, !dbg !9813
  %28 = call i32 (%struct.__sFILE*, i8*, ...) @fprintf(%struct.__sFILE* %25, i8* getelementptr inbounds ([69 x i8], [69 x i8]* @.str.21, i32 0, i32 0), i32 %26, i32 %27), !dbg !9814
  br label %29, !dbg !9814

; <label>:29:                                     ; preds = %22, %19
  %30 = load i32, i32* %8, align 4, !dbg !9815
  %31 = icmp sge i32 %30, 3, !dbg !9817
  br i1 %31, label %35, label %32, !dbg !9818

; <label>:32:                                     ; preds = %29
  %33 = load i32, i32* %9, align 4, !dbg !9819
  %34 = icmp sge i32 %33, 3, !dbg !9821
  br i1 %34, label %35, label %42, !dbg !9822

; <label>:35:                                     ; preds = %32, %29
  %36 = load %struct._reent*, %struct._reent** @_impure_ptr, align 4, !dbg !9823
  %37 = getelementptr inbounds %struct._reent, %struct._reent* %36, i32 0, i32 3, !dbg !9823
  %38 = load %struct.__sFILE*, %struct.__sFILE** %37, align 4, !dbg !9823
  %39 = load i32, i32* %8, align 4, !dbg !9824
  %40 = load i32, i32* %9, align 4, !dbg !9825
  %41 = call i32 (%struct.__sFILE*, i8*, ...) @fprintf(%struct.__sFILE* %38, i8* getelementptr inbounds ([67 x i8], [67 x i8]* @.str.22, i32 0, i32 0), i32 %39, i32 %40, i32 3), !dbg !9826
  br label %42, !dbg !9826

; <label>:42:                                     ; preds = %35, %32
  %43 = load %struct.ap_range_ref*, %struct.ap_range_ref** %5, align 4, !dbg !9827
  ret %struct.ap_range_ref* %43, !dbg !9827
}

; Function Attrs: inlinehint
define linkonce_odr %struct.ap_range_ref.5* @_ZN12ap_range_refILi2ELb0EEC2EP10ap_privateILi2ELb0ELb1EEii(%struct.ap_range_ref.5* returned, %class.ap_private.2*, i32, i32) unnamed_addr #6 comdat align 2 !dbg !9828 !xidane.fname !9786 !xidane.function_declaration_type !9829 !xidane.function_declaration_filename !8367 {
  %5 = alloca %struct.ap_range_ref.5*, align 4
  %6 = alloca %struct.ap_range_ref.5*, align 4
  %7 = alloca %class.ap_private.2*, align 4
  %8 = alloca i32, align 4
  %9 = alloca i32, align 4
  store %struct.ap_range_ref.5* %0, %struct.ap_range_ref.5** %6, align 4
  call void @llvm.dbg.declare(metadata %struct.ap_range_ref.5** %6, metadata !9830, metadata !8082), !dbg !9832
  store %class.ap_private.2* %1, %class.ap_private.2** %7, align 4
  call void @llvm.dbg.declare(metadata %class.ap_private.2** %7, metadata !9833, metadata !8082), !dbg !9834
  store i32 %2, i32* %8, align 4
  call void @llvm.dbg.declare(metadata i32* %8, metadata !9835, metadata !8082), !dbg !9836
  store i32 %3, i32* %9, align 4
  call void @llvm.dbg.declare(metadata i32* %9, metadata !9837, metadata !8082), !dbg !9838
  %10 = load %struct.ap_range_ref.5*, %struct.ap_range_ref.5** %6, align 4
  store %struct.ap_range_ref.5* %10, %struct.ap_range_ref.5** %5, align 4
  %11 = getelementptr inbounds %struct.ap_range_ref.5, %struct.ap_range_ref.5* %10, i32 0, i32 0, !dbg !9839
  %12 = load %class.ap_private.2*, %class.ap_private.2** %7, align 4, !dbg !9840
  store %class.ap_private.2* %12, %class.ap_private.2** %11, align 4, !dbg !9839
  %13 = getelementptr inbounds %struct.ap_range_ref.5, %struct.ap_range_ref.5* %10, i32 0, i32 1, !dbg !9841
  %14 = load i32, i32* %9, align 4, !dbg !9842
  store i32 %14, i32* %13, align 4, !dbg !9841
  %15 = getelementptr inbounds %struct.ap_range_ref.5, %struct.ap_range_ref.5* %10, i32 0, i32 2, !dbg !9843
  %16 = load i32, i32* %8, align 4, !dbg !9844
  store i32 %16, i32* %15, align 4, !dbg !9843
  %17 = load i32, i32* %8, align 4, !dbg !9845
  %18 = icmp slt i32 %17, 0, !dbg !9848
  br i1 %18, label %22, label %19, !dbg !9849

; <label>:19:                                     ; preds = %4
  %20 = load i32, i32* %9, align 4, !dbg !9850
  %21 = icmp slt i32 %20, 0, !dbg !9852
  br i1 %21, label %22, label %29, !dbg !9853

; <label>:22:                                     ; preds = %19, %4
  %23 = load %struct._reent*, %struct._reent** @_impure_ptr, align 4, !dbg !9854
  %24 = getelementptr inbounds %struct._reent, %struct._reent* %23, i32 0, i32 3, !dbg !9854
  %25 = load %struct.__sFILE*, %struct.__sFILE** %24, align 4, !dbg !9854
  %26 = load i32, i32* %8, align 4, !dbg !9855
  %27 = load i32, i32* %9, align 4, !dbg !9856
  %28 = call i32 (%struct.__sFILE*, i8*, ...) @fprintf(%struct.__sFILE* %25, i8* getelementptr inbounds ([69 x i8], [69 x i8]* @.str.21, i32 0, i32 0), i32 %26, i32 %27), !dbg !9857
  br label %29, !dbg !9857

; <label>:29:                                     ; preds = %22, %19
  %30 = load i32, i32* %8, align 4, !dbg !9858
  %31 = icmp sge i32 %30, 2, !dbg !9860
  br i1 %31, label %35, label %32, !dbg !9861

; <label>:32:                                     ; preds = %29
  %33 = load i32, i32* %9, align 4, !dbg !9862
  %34 = icmp sge i32 %33, 2, !dbg !9864
  br i1 %34, label %35, label %42, !dbg !9865

; <label>:35:                                     ; preds = %32, %29
  %36 = load %struct._reent*, %struct._reent** @_impure_ptr, align 4, !dbg !9866
  %37 = getelementptr inbounds %struct._reent, %struct._reent* %36, i32 0, i32 3, !dbg !9866
  %38 = load %struct.__sFILE*, %struct.__sFILE** %37, align 4, !dbg !9866
  %39 = load i32, i32* %8, align 4, !dbg !9867
  %40 = load i32, i32* %9, align 4, !dbg !9868
  %41 = call i32 (%struct.__sFILE*, i8*, ...) @fprintf(%struct.__sFILE* %38, i8* getelementptr inbounds ([67 x i8], [67 x i8]* @.str.22, i32 0, i32 0), i32 %39, i32 %40, i32 2), !dbg !9869
  br label %42, !dbg !9869

; <label>:42:                                     ; preds = %35, %32
  %43 = load %struct.ap_range_ref.5*, %struct.ap_range_ref.5** %5, align 4, !dbg !9870
  ret %struct.ap_range_ref.5* %43, !dbg !9870
}

; Function Attrs: inlinehint
define linkonce_odr %class.ap_private.0* @_ZN10ap_privateILi3ELb0ELb1EEC2ILi2ELb0EEERK12ap_range_refIXT_EXT0_EE(%class.ap_private.0* returned, %struct.ap_range_ref.5* dereferenceable(12)) unnamed_addr #6 comdat align 2 personality i8* bitcast (i32 (...)* @__gxx_personality_v0 to i8*) !dbg !9871 !xidane.fname !9878 !xidane.function_declaration_type !9879 !xidane.function_declaration_filename !8347 {
  %3 = alloca %class.ap_private.0*, align 4
  %4 = alloca %struct.ap_range_ref.5*, align 4
  %5 = alloca %class.ap_private.2, align 1
  %6 = alloca i8*
  %7 = alloca i32
  store %class.ap_private.0* %0, %class.ap_private.0** %3, align 4
  call void @llvm.dbg.declare(metadata %class.ap_private.0** %3, metadata !9880, metadata !8082), !dbg !9881
  store %struct.ap_range_ref.5* %1, %struct.ap_range_ref.5** %4, align 4
  call void @llvm.dbg.declare(metadata %struct.ap_range_ref.5** %4, metadata !9882, metadata !8082), !dbg !9883
  %8 = load %class.ap_private.0*, %class.ap_private.0** %3, align 4
  call void @_ZN10ap_privateILi3ELb0ELb1EE10set_canaryEv(%class.ap_private.0* %8), !dbg !9884
  %9 = load %struct.ap_range_ref.5*, %struct.ap_range_ref.5** %4, align 4, !dbg !9886
  call void @_ZNK12ap_range_refILi2ELb0EE3getEv(%class.ap_private.2* sret %5, %struct.ap_range_ref.5* %9), !dbg !9887
  %10 = invoke dereferenceable(1) %class.ap_private.0* @_ZN10ap_privateILi3ELb0ELb1EEaSILi2ELb0EEERS0_RKS_IXT_EXT0_EXleT_Li64EEE(%class.ap_private.0* %8, %class.ap_private.2* dereferenceable(1) %5)
          to label %11 unwind label %13, !dbg !9888

; <label>:11:                                     ; preds = %2
  %12 = call %class.ap_private.2* @_ZN10ap_privateILi2ELb0ELb1EED2Ev(%class.ap_private.2* %5) #3, !dbg !9889
  call void @_ZN10ap_privateILi3ELb0ELb1EE12check_canaryEv(%class.ap_private.0* %8), !dbg !9891
  ret %class.ap_private.0* %8, !dbg !9892

; <label>:13:                                     ; preds = %2
  %14 = landingpad { i8*, i32 }
          cleanup, !dbg !9893
  %15 = extractvalue { i8*, i32 } %14, 0, !dbg !9893
  store i8* %15, i8** %6, align 4, !dbg !9893
  %16 = extractvalue { i8*, i32 } %14, 1, !dbg !9893
  store i32 %16, i32* %7, align 4, !dbg !9893
  %17 = call %class.ap_private.2* @_ZN10ap_privateILi2ELb0ELb1EED2Ev(%class.ap_private.2* %5) #3, !dbg !9894
  br label %18, !dbg !9894

; <label>:18:                                     ; preds = %13
  %19 = load i8*, i8** %6, align 4, !dbg !9896
  %20 = load i32, i32* %7, align 4, !dbg !9896
  %21 = insertvalue { i8*, i32 } undef, i8* %19, 0, !dbg !9896
  %22 = insertvalue { i8*, i32 } %21, i32 %20, 1, !dbg !9896
  resume { i8*, i32 } %22, !dbg !9896
}

; Function Attrs: inlinehint
define linkonce_odr dereferenceable(12) %struct.ap_range_ref* @_ZN12ap_range_refILi3ELb0EEaSILi3ELb0EEERS0_RK10ap_privateIXT_EXT0_EXleT_Li64EEE(%struct.ap_range_ref*, %class.ap_private.0* dereferenceable(1)) #6 comdat align 2 personality i8* bitcast (i32 (...)* @__gxx_personality_v0 to i8*) !dbg !9898 !xidane.fname !9904 !xidane.function_declaration_type !9905 !xidane.function_declaration_filename !8367 {
  %3 = alloca %struct.ap_range_ref*, align 4
  %4 = alloca %class.ap_private.0*, align 4
  %5 = alloca %class.ap_private.0, align 1
  %6 = alloca i32, align 4
  %7 = alloca i32, align 4
  %8 = alloca %struct.ap_bit_ref, align 4
  %9 = alloca i8*
  %10 = alloca i32
  %11 = alloca i32, align 4
  %12 = alloca i64, align 8
  %13 = alloca %class.ap_private.13, align 8
  %14 = alloca %class.ap_private.0, align 1
  %15 = alloca i64, align 8
  store %struct.ap_range_ref* %0, %struct.ap_range_ref** %3, align 4
  call void @llvm.dbg.declare(metadata %struct.ap_range_ref** %3, metadata !9906, metadata !8082), !dbg !9907
  store %class.ap_private.0* %1, %class.ap_private.0** %4, align 4
  call void @llvm.dbg.declare(metadata %class.ap_private.0** %4, metadata !9908, metadata !8082), !dbg !9909
  %16 = load %struct.ap_range_ref*, %struct.ap_range_ref** %3, align 4
  call void @llvm.dbg.declare(metadata %class.ap_private.0* %5, metadata !9910, metadata !8082), !dbg !9911
  %17 = load %class.ap_private.0*, %class.ap_private.0** %4, align 4, !dbg !9912
  %18 = bitcast %class.ap_private.0* %5 to i8*, !dbg !9913
  %19 = bitcast %class.ap_private.0* %17 to i8*, !dbg !9913
  call void @llvm.memcpy.p0i8.p0i8.i32(i8* %18, i8* %19, i32 1, i32 1, i1 false), !dbg !9913
  %20 = getelementptr inbounds %struct.ap_range_ref, %struct.ap_range_ref* %16, i32 0, i32 1, !dbg !9914
  %21 = load i32, i32* %20, align 4, !dbg !9914
  %22 = getelementptr inbounds %struct.ap_range_ref, %struct.ap_range_ref* %16, i32 0, i32 2, !dbg !9916
  %23 = load i32, i32* %22, align 4, !dbg !9916
  %24 = icmp sgt i32 %21, %23, !dbg !9917
  br i1 %24, label %25, label %67, !dbg !9918

; <label>:25:                                     ; preds = %2
  call void @llvm.dbg.declare(metadata i32* %6, metadata !9919, metadata !8082), !dbg !9922
  store i32 0, i32* %6, align 4, !dbg !9922
  call void @llvm.dbg.declare(metadata i32* %7, metadata !9923, metadata !8082), !dbg !9924
  %26 = getelementptr inbounds %struct.ap_range_ref, %struct.ap_range_ref* %16, i32 0, i32 1, !dbg !9925
  %27 = load i32, i32* %26, align 4, !dbg !9925
  store i32 %27, i32* %7, align 4, !dbg !9924
  br label %28, !dbg !9926

; <label>:28:                                     ; preds = %57, %25
  %29 = load i32, i32* %7, align 4, !dbg !9927
  %30 = icmp sge i32 %29, 0, !dbg !9930
  br i1 %30, label %31, label %36, !dbg !9931

; <label>:31:                                     ; preds = %28
  %32 = load i32, i32* %7, align 4, !dbg !9932
  %33 = getelementptr inbounds %struct.ap_range_ref, %struct.ap_range_ref* %16, i32 0, i32 2, !dbg !9934
  %34 = load i32, i32* %33, align 4, !dbg !9934
  %35 = icmp sge i32 %32, %34, !dbg !9935
  br label %36

; <label>:36:                                     ; preds = %31, %28
  %37 = phi i1 [ false, %28 ], [ %35, %31 ]
  br i1 %37, label %38, label %66, !dbg !9936

; <label>:38:                                     ; preds = %36
  %39 = load i32, i32* %6, align 4, !dbg !9938
  invoke void @_ZN10ap_privateILi3ELb0ELb1EEixEi(%struct.ap_bit_ref* sret %8, %class.ap_private.0* %5, i32 %39)
          to label %40 unwind label %62, !dbg !9939

; <label>:40:                                     ; preds = %38
  %41 = invoke zeroext i1 @_ZNK10ap_bit_refILi3ELb0EEcvbEv(%struct.ap_bit_ref* %8)
          to label %42 unwind label %62, !dbg !9940

; <label>:42:                                     ; preds = %40
  br i1 %41, label %43, label %49, !dbg !9941

; <label>:43:                                     ; preds = %42
  %44 = getelementptr inbounds %struct.ap_range_ref, %struct.ap_range_ref* %16, i32 0, i32 0, !dbg !9942
  %45 = load %class.ap_private.0*, %class.ap_private.0** %44, align 4, !dbg !9942
  %46 = load i32, i32* %7, align 4, !dbg !9944
  %47 = invoke dereferenceable(1) %class.ap_private.0* @_ZN10ap_privateILi3ELb0ELb1EE3setEj(%class.ap_private.0* %45, i32 %46)
          to label %48 unwind label %62, !dbg !9945

; <label>:48:                                     ; preds = %43
  br label %55, !dbg !9946

; <label>:49:                                     ; preds = %42
  %50 = getelementptr inbounds %struct.ap_range_ref, %struct.ap_range_ref* %16, i32 0, i32 0, !dbg !9948
  %51 = load %class.ap_private.0*, %class.ap_private.0** %50, align 4, !dbg !9948
  %52 = load i32, i32* %7, align 4, !dbg !9950
  %53 = invoke dereferenceable(1) %class.ap_private.0* @_ZN10ap_privateILi3ELb0ELb1EE5clearEj(%class.ap_private.0* %51, i32 %52)
          to label %54 unwind label %62, !dbg !9951

; <label>:54:                                     ; preds = %49
  br label %55, !dbg !9952

; <label>:55:                                     ; preds = %54, %48
  %56 = phi %class.ap_private.0* [ %47, %48 ], [ %53, %54 ], !dbg !9954
  br label %57, !dbg !9954

; <label>:57:                                     ; preds = %55
  %58 = load i32, i32* %7, align 4, !dbg !9956
  %59 = add nsw i32 %58, -1, !dbg !9956
  store i32 %59, i32* %7, align 4, !dbg !9956
  %60 = load i32, i32* %6, align 4, !dbg !9957
  %61 = add nsw i32 %60, 1, !dbg !9957
  store i32 %61, i32* %6, align 4, !dbg !9957
  br label %28, !dbg !9958, !llvm.loop !9959

; <label>:62:                                     ; preds = %128, %121, %106, %74, %49, %43, %40, %38
  %63 = landingpad { i8*, i32 }
          cleanup, !dbg !9961
  %64 = extractvalue { i8*, i32 } %63, 0, !dbg !9961
  store i8* %64, i8** %9, align 4, !dbg !9961
  %65 = extractvalue { i8*, i32 } %63, 1, !dbg !9961
  store i32 %65, i32* %10, align 4, !dbg !9961
  br label %135, !dbg !9961

; <label>:66:                                     ; preds = %36
  br label %133, !dbg !9962

; <label>:67:                                     ; preds = %2
  call void @llvm.dbg.declare(metadata i32* %11, metadata !9963, metadata !8082), !dbg !9967
  store i32 61, i32* %11, align 4, !dbg !9967
  call void @llvm.dbg.declare(metadata i64* %12, metadata !9968, metadata !8082), !dbg !9969
  %68 = load i32, i32* %11, align 4, !dbg !9970
  %69 = zext i32 %68 to i64, !dbg !9971
  %70 = lshr i64 -1, %69, !dbg !9971
  store i64 %70, i64* %12, align 8, !dbg !9969
  %71 = getelementptr inbounds %struct.ap_range_ref, %struct.ap_range_ref* %16, i32 0, i32 1, !dbg !9972
  %72 = load i32, i32* %71, align 4, !dbg !9972
  %73 = icmp sgt i32 %72, 0, !dbg !9974
  br i1 %73, label %74, label %102, !dbg !9975

; <label>:74:                                     ; preds = %67
  %75 = load i64, i64* %12, align 8, !dbg !9976
  %76 = getelementptr inbounds %struct.ap_range_ref, %struct.ap_range_ref* %16, i32 0, i32 1, !dbg !9978
  %77 = load i32, i32* %76, align 4, !dbg !9978
  invoke void @_ZNK10ap_privateILi3ELb0ELb1EElsEi(%class.ap_private.0* sret %14, %class.ap_private.0* %5, i32 %77)
          to label %78 unwind label %62, !dbg !9979

; <label>:78:                                     ; preds = %74
  invoke void @_ZanILi3ELb0EEN10ap_privateILi64ELb0ELb1EE5RTypeIXT_EXT0_EE5logicEyRKS0_IXT_EXT0_EXleT_Li64EEE(%class.ap_private.13* sret %13, i64 %75, %class.ap_private.0* dereferenceable(1) %14)
          to label %79 unwind label %91, !dbg !9980

; <label>:79:                                     ; preds = %78
  %80 = invoke dereferenceable(1) %class.ap_private.0* @_ZN10ap_privateILi3ELb0ELb1EEaSILi64ELb0EEERS0_RKS_IXT_EXT0_EXleT_Li64EEE(%class.ap_private.0* %5, %class.ap_private.13* dereferenceable(8) %13)
          to label %81 unwind label %95, !dbg !9982

; <label>:81:                                     ; preds = %79
  %82 = call %class.ap_private.13* @_ZN10ap_privateILi64ELb0ELb1EED2Ev(%class.ap_private.13* %13) #3, !dbg !9984
  %83 = call %class.ap_private.0* @_ZN10ap_privateILi3ELb0ELb1EED2Ev(%class.ap_private.0* %14) #3, !dbg !9986
  %84 = load i64, i64* %12, align 8, !dbg !9988
  %85 = load i64, i64* %12, align 8, !dbg !9989
  %86 = getelementptr inbounds %struct.ap_range_ref, %struct.ap_range_ref* %16, i32 0, i32 1, !dbg !9990
  %87 = load i32, i32* %86, align 4, !dbg !9990
  %88 = zext i32 %87 to i64, !dbg !9991
  %89 = shl i64 %85, %88, !dbg !9991
  %90 = and i64 %84, %89, !dbg !9992
  store i64 %90, i64* %12, align 8, !dbg !9993
  br label %102, !dbg !9994

; <label>:91:                                     ; preds = %78
  %92 = landingpad { i8*, i32 }
          cleanup, !dbg !9995
  %93 = extractvalue { i8*, i32 } %92, 0, !dbg !9995
  store i8* %93, i8** %9, align 4, !dbg !9995
  %94 = extractvalue { i8*, i32 } %92, 1, !dbg !9995
  store i32 %94, i32* %10, align 4, !dbg !9995
  br label %100, !dbg !9995

; <label>:95:                                     ; preds = %79
  %96 = landingpad { i8*, i32 }
          cleanup, !dbg !9996
  %97 = extractvalue { i8*, i32 } %96, 0, !dbg !9996
  store i8* %97, i8** %9, align 4, !dbg !9996
  %98 = extractvalue { i8*, i32 } %96, 1, !dbg !9996
  store i32 %98, i32* %10, align 4, !dbg !9996
  %99 = call %class.ap_private.13* @_ZN10ap_privateILi64ELb0ELb1EED2Ev(%class.ap_private.13* %13) #3, !dbg !9997
  br label %100, !dbg !9997

; <label>:100:                                    ; preds = %95, %91
  %101 = call %class.ap_private.0* @_ZN10ap_privateILi3ELb0ELb1EED2Ev(%class.ap_private.0* %14) #3, !dbg !9999
  br label %135, !dbg !9999

; <label>:102:                                    ; preds = %81, %67
  %103 = getelementptr inbounds %struct.ap_range_ref, %struct.ap_range_ref* %16, i32 0, i32 2, !dbg !10001
  %104 = load i32, i32* %103, align 4, !dbg !10001
  %105 = icmp slt i32 %104, 2, !dbg !10003
  br i1 %105, label %106, label %121, !dbg !10004

; <label>:106:                                    ; preds = %102
  call void @llvm.dbg.declare(metadata i64* %15, metadata !10005, metadata !8082), !dbg !10007
  %107 = load i64, i64* %12, align 8, !dbg !10008
  store i64 %107, i64* %15, align 8, !dbg !10007
  %108 = getelementptr inbounds %struct.ap_range_ref, %struct.ap_range_ref* %16, i32 0, i32 2, !dbg !10009
  %109 = load i32, i32* %108, align 4, !dbg !10009
  %110 = sub nsw i32 3, %109, !dbg !10010
  %111 = sub nsw i32 %110, 1, !dbg !10011
  %112 = load i64, i64* %15, align 8, !dbg !10012
  %113 = zext i32 %111 to i64, !dbg !10012
  %114 = lshr i64 %112, %113, !dbg !10012
  store i64 %114, i64* %15, align 8, !dbg !10012
  %115 = load i64, i64* %15, align 8, !dbg !10013
  %116 = load i64, i64* %12, align 8, !dbg !10014
  %117 = and i64 %116, %115, !dbg !10014
  store i64 %117, i64* %12, align 8, !dbg !10014
  %118 = load i64, i64* %15, align 8, !dbg !10015
  %119 = invoke dereferenceable(1) %class.ap_private.0* @_ZN10ap_privateILi3ELb0ELb1EEaNEy(%class.ap_private.0* %5, i64 %118)
          to label %120 unwind label %62, !dbg !10016

; <label>:120:                                    ; preds = %106
  br label %121, !dbg !10017

; <label>:121:                                    ; preds = %120, %102
  %122 = load i64, i64* %12, align 8, !dbg !10018
  %123 = xor i64 %122, -1, !dbg !10019
  store i64 %123, i64* %12, align 8, !dbg !10020
  %124 = getelementptr inbounds %struct.ap_range_ref, %struct.ap_range_ref* %16, i32 0, i32 0, !dbg !10021
  %125 = load %class.ap_private.0*, %class.ap_private.0** %124, align 4, !dbg !10021
  %126 = load i64, i64* %12, align 8, !dbg !10022
  %127 = invoke dereferenceable(1) %class.ap_private.0* @_ZN10ap_privateILi3ELb0ELb1EEaNEy(%class.ap_private.0* %125, i64 %126)
          to label %128 unwind label %62, !dbg !10023

; <label>:128:                                    ; preds = %121
  %129 = getelementptr inbounds %struct.ap_range_ref, %struct.ap_range_ref* %16, i32 0, i32 0, !dbg !10024
  %130 = load %class.ap_private.0*, %class.ap_private.0** %129, align 4, !dbg !10024
  %131 = invoke dereferenceable(1) %class.ap_private.0* @_ZN10ap_privateILi3ELb0ELb1EEoRILi3ELb0EEERS0_RKS_IXT_EXT0_EXleT_Li64EEE(%class.ap_private.0* %130, %class.ap_private.0* dereferenceable(1) %5)
          to label %132 unwind label %62, !dbg !10025

; <label>:132:                                    ; preds = %128
  br label %133

; <label>:133:                                    ; preds = %132, %66
  %134 = call %class.ap_private.0* @_ZN10ap_privateILi3ELb0ELb1EED2Ev(%class.ap_private.0* %5) #3, !dbg !10026
  ret %struct.ap_range_ref* %16, !dbg !10026

; <label>:135:                                    ; preds = %100, %62
  %136 = call %class.ap_private.0* @_ZN10ap_privateILi3ELb0ELb1EED2Ev(%class.ap_private.0* %5) #3, !dbg !10028
  br label %137, !dbg !10028

; <label>:137:                                    ; preds = %135
  %138 = load i8*, i8** %9, align 4, !dbg !10030
  %139 = load i32, i32* %10, align 4, !dbg !10030
  %140 = insertvalue { i8*, i32 } undef, i8* %138, 0, !dbg !10030
  %141 = insertvalue { i8*, i32 } %140, i32 %139, 1, !dbg !10030
  resume { i8*, i32 } %141, !dbg !10030
}

; Function Attrs: inlinehint nounwind
define linkonce_odr %class.ap_private.0* @_ZN10ap_privateILi3ELb0ELb1EED2Ev(%class.ap_private.0* returned) unnamed_addr #7 comdat align 2 personality i8* bitcast (i32 (...)* @__gxx_personality_v0 to i8*) !dbg !10032 !xidane.fname !8701 !xidane.function_declaration_type !8034 !xidane.function_declaration_filename !8347 {
  %2 = alloca %class.ap_private.0*, align 4
  store %class.ap_private.0* %0, %class.ap_private.0** %2, align 4
  call void @llvm.dbg.declare(metadata %class.ap_private.0** %2, metadata !10033, metadata !8082), !dbg !10034
  %3 = load %class.ap_private.0*, %class.ap_private.0** %2, align 4
  invoke void @_ZN10ap_privateILi3ELb0ELb1EE12check_canaryEv(%class.ap_private.0* %3)
          to label %4 unwind label %5, !dbg !10035

; <label>:4:                                      ; preds = %1
  ret %class.ap_private.0* %3, !dbg !10037

; <label>:5:                                      ; preds = %1
  %6 = landingpad { i8*, i32 }
          catch i8* null, !dbg !10039
  %7 = extractvalue { i8*, i32 } %6, 0, !dbg !10039
  call void @__clang_call_terminate(i8* %7) #11, !dbg !10039
  unreachable, !dbg !10039
}

define linkonce_odr dereferenceable(1) %class.ap_private.0* @_ZN10ap_privateILi3ELb0ELb1EEaSILi2ELb0EEERS0_RKS_IXT_EXT0_EXleT_Li64EEE(%class.ap_private.0*, %class.ap_private.2* dereferenceable(1)) #0 comdat align 2 !dbg !10041 !xidane.fname !8365 !xidane.function_declaration_type !10048 !xidane.function_declaration_filename !8347 {
  %3 = alloca %class.ap_private.0*, align 4
  %4 = alloca %class.ap_private.2*, align 4
  store %class.ap_private.0* %0, %class.ap_private.0** %3, align 4
  call void @llvm.dbg.declare(metadata %class.ap_private.0** %3, metadata !10049, metadata !8082), !dbg !10050
  store %class.ap_private.2* %1, %class.ap_private.2** %4, align 4
  call void @llvm.dbg.declare(metadata %class.ap_private.2** %4, metadata !10051, metadata !8082), !dbg !10052
  %5 = load %class.ap_private.0*, %class.ap_private.0** %3, align 4
  %6 = load %class.ap_private.2*, %class.ap_private.2** %4, align 4, !dbg !10053
  %7 = call zeroext i8 @_ZNK10ap_privateILi2ELb0ELb1EE7get_VALEv(%class.ap_private.2* %6), !dbg !10054
  %8 = getelementptr inbounds %class.ap_private.0, %class.ap_private.0* %5, i32 0, i32 0, !dbg !10055
  store i8 %7, i8* %8, align 1, !dbg !10056
  call void @_ZN10ap_privateILi3ELb0ELb1EE15clearUnusedBitsEv(%class.ap_private.0* %5), !dbg !10057
  ret %class.ap_private.0* %5, !dbg !10058
}

; Function Attrs: inlinehint
define linkonce_odr void @_ZNK12ap_range_refILi2ELb0EE3getEv(%class.ap_private.2* noalias sret, %struct.ap_range_ref.5*) #6 comdat align 2 personality i8* bitcast (i32 (...)* @__gxx_personality_v0 to i8*) !dbg !6490 !xidane.fname !10059 !xidane.function_declaration_type !10060 !xidane.function_declaration_filename !8367 {
  %3 = alloca %struct.ap_range_ref.5*, align 4
  %4 = alloca i1, align 1
  %5 = alloca i32, align 4
  %6 = alloca i32, align 4
  %7 = alloca %struct.ap_bit_ref.12, align 4
  %8 = alloca i8*
  %9 = alloca i32
  store %struct.ap_range_ref.5* %1, %struct.ap_range_ref.5** %3, align 4
  call void @llvm.dbg.declare(metadata %struct.ap_range_ref.5** %3, metadata !10061, metadata !8082), !dbg !10063
  %10 = load %struct.ap_range_ref.5*, %struct.ap_range_ref.5** %3, align 4
  store i1 false, i1* %4, align 1, !dbg !10064
  call void @llvm.dbg.declare(metadata %class.ap_private.2* %0, metadata !10065, metadata !8106), !dbg !10066
  %11 = call %class.ap_private.2* @_ZN10ap_privateILi2ELb0ELb1EEC2Ei(%class.ap_private.2* %0, i32 0), !dbg !10066
  %12 = getelementptr inbounds %struct.ap_range_ref.5, %struct.ap_range_ref.5* %10, i32 0, i32 2, !dbg !10067
  %13 = load i32, i32* %12, align 4, !dbg !10067
  %14 = getelementptr inbounds %struct.ap_range_ref.5, %struct.ap_range_ref.5* %10, i32 0, i32 1, !dbg !10069
  %15 = load i32, i32* %14, align 4, !dbg !10069
  %16 = icmp slt i32 %13, %15, !dbg !10070
  br i1 %16, label %17, label %53, !dbg !10071

; <label>:17:                                     ; preds = %2
  call void @llvm.dbg.declare(metadata i32* %5, metadata !10072, metadata !8082), !dbg !10075
  store i32 0, i32* %5, align 4, !dbg !10075
  call void @llvm.dbg.declare(metadata i32* %6, metadata !10076, metadata !8082), !dbg !10077
  %18 = getelementptr inbounds %struct.ap_range_ref.5, %struct.ap_range_ref.5* %10, i32 0, i32 1, !dbg !10078
  %19 = load i32, i32* %18, align 4, !dbg !10078
  store i32 %19, i32* %6, align 4, !dbg !10077
  br label %20, !dbg !10079

; <label>:20:                                     ; preds = %47, %17
  %21 = load i32, i32* %6, align 4, !dbg !10080
  %22 = icmp sge i32 %21, 0, !dbg !10083
  br i1 %22, label %23, label %28, !dbg !10084

; <label>:23:                                     ; preds = %20
  %24 = load i32, i32* %6, align 4, !dbg !10085
  %25 = getelementptr inbounds %struct.ap_range_ref.5, %struct.ap_range_ref.5* %10, i32 0, i32 2, !dbg !10087
  %26 = load i32, i32* %25, align 4, !dbg !10087
  %27 = icmp sge i32 %24, %26, !dbg !10088
  br label %28

; <label>:28:                                     ; preds = %23, %20
  %29 = phi i1 [ false, %20 ], [ %27, %23 ]
  br i1 %29, label %30, label %52, !dbg !10089

; <label>:30:                                     ; preds = %28
  %31 = getelementptr inbounds %struct.ap_range_ref.5, %struct.ap_range_ref.5* %10, i32 0, i32 0, !dbg !10091
  %32 = load %class.ap_private.2*, %class.ap_private.2** %31, align 4, !dbg !10091
  %33 = load i32, i32* %6, align 4, !dbg !10093
  invoke void @_ZN10ap_privateILi2ELb0ELb1EEixEi(%struct.ap_bit_ref.12* sret %7, %class.ap_private.2* %32, i32 %33)
          to label %34 unwind label %41, !dbg !10094

; <label>:34:                                     ; preds = %30
  %35 = invoke zeroext i1 @_ZNK10ap_bit_refILi2ELb0EEcvbEv(%struct.ap_bit_ref.12* %7)
          to label %36 unwind label %41, !dbg !10095

; <label>:36:                                     ; preds = %34
  br i1 %35, label %37, label %46, !dbg !10097

; <label>:37:                                     ; preds = %36
  %38 = load i32, i32* %5, align 4, !dbg !10098
  %39 = invoke dereferenceable(1) %class.ap_private.2* @_ZN10ap_privateILi2ELb0ELb1EE3setEj(%class.ap_private.2* %0, i32 %38)
          to label %40 unwind label %41, !dbg !10100

; <label>:40:                                     ; preds = %37
  br label %46, !dbg !10101

; <label>:41:                                     ; preds = %65, %57, %53, %37, %34, %30
  %42 = landingpad { i8*, i32 }
          cleanup, !dbg !10103
  %43 = extractvalue { i8*, i32 } %42, 0, !dbg !10103
  store i8* %43, i8** %8, align 4, !dbg !10103
  %44 = extractvalue { i8*, i32 } %42, 1, !dbg !10103
  store i32 %44, i32* %9, align 4, !dbg !10103
  %45 = call %class.ap_private.2* @_ZN10ap_privateILi2ELb0ELb1EED2Ev(%class.ap_private.2* %0) #3, !dbg !10104
  br label %83, !dbg !10104

; <label>:46:                                     ; preds = %40, %36
  br label %47, !dbg !10105

; <label>:47:                                     ; preds = %46
  %48 = load i32, i32* %6, align 4, !dbg !10107
  %49 = add nsw i32 %48, -1, !dbg !10107
  store i32 %49, i32* %6, align 4, !dbg !10107
  %50 = load i32, i32* %5, align 4, !dbg !10109
  %51 = add nsw i32 %50, 1, !dbg !10109
  store i32 %51, i32* %5, align 4, !dbg !10109
  br label %20, !dbg !10110, !llvm.loop !10111

; <label>:52:                                     ; preds = %28
  br label %78, !dbg !10113

; <label>:53:                                     ; preds = %2
  %54 = getelementptr inbounds %struct.ap_range_ref.5, %struct.ap_range_ref.5* %10, i32 0, i32 0, !dbg !10114
  %55 = load %class.ap_private.2*, %class.ap_private.2** %54, align 4, !dbg !10114
  %56 = invoke dereferenceable(1) %class.ap_private.2* @_ZN10ap_privateILi2ELb0ELb1EEaSERKS0_(%class.ap_private.2* %0, %class.ap_private.2* dereferenceable(1) %55)
          to label %57 unwind label %41, !dbg !10116

; <label>:57:                                     ; preds = %53
  %58 = getelementptr inbounds %struct.ap_range_ref.5, %struct.ap_range_ref.5* %10, i32 0, i32 1, !dbg !10117
  %59 = load i32, i32* %58, align 4, !dbg !10117
  %60 = invoke dereferenceable(1) %class.ap_private.2* @_ZrSILi2ELb0EER10ap_privateIXT_EXT0_EXleT_Li64EEES2_i(%class.ap_private.2* dereferenceable(1) %0, i32 %59)
          to label %61 unwind label %41, !dbg !10118

; <label>:61:                                     ; preds = %57
  %62 = getelementptr inbounds %struct.ap_range_ref.5, %struct.ap_range_ref.5* %10, i32 0, i32 2, !dbg !10119
  %63 = load i32, i32* %62, align 4, !dbg !10119
  %64 = icmp slt i32 %63, 1, !dbg !10121
  br i1 %64, label %65, label %77, !dbg !10122

; <label>:65:                                     ; preds = %61
  %66 = getelementptr inbounds %struct.ap_range_ref.5, %struct.ap_range_ref.5* %10, i32 0, i32 2, !dbg !10123
  %67 = load i32, i32* %66, align 4, !dbg !10123
  %68 = getelementptr inbounds %struct.ap_range_ref.5, %struct.ap_range_ref.5* %10, i32 0, i32 1, !dbg !10127
  %69 = load i32, i32* %68, align 4, !dbg !10127
  %70 = sub nsw i32 %67, %69, !dbg !10128
  %71 = add nsw i32 %70, 1, !dbg !10129
  %72 = sub nsw i32 2, %71, !dbg !10130
  %73 = zext i32 %72 to i64, !dbg !10131
  %74 = lshr i64 3, %73, !dbg !10131
  %75 = invoke dereferenceable(1) %class.ap_private.2* @_ZN10ap_privateILi2ELb0ELb1EEaNEy(%class.ap_private.2* %0, i64 %74)
          to label %76 unwind label %41, !dbg !10132

; <label>:76:                                     ; preds = %65
  br label %77, !dbg !10133

; <label>:77:                                     ; preds = %76, %61
  br label %78

; <label>:78:                                     ; preds = %77, %52
  store i1 true, i1* %4, align 1, !dbg !10134
  %79 = load i1, i1* %4, align 1, !dbg !10135
  br i1 %79, label %82, label %80, !dbg !10135

; <label>:80:                                     ; preds = %78
  %81 = call %class.ap_private.2* @_ZN10ap_privateILi2ELb0ELb1EED2Ev(%class.ap_private.2* %0) #3, !dbg !10137
  br label %82, !dbg !10137

; <label>:82:                                     ; preds = %80, %78
  ret void, !dbg !10139

; <label>:83:                                     ; preds = %41
  %84 = load i8*, i8** %8, align 4, !dbg !10141
  %85 = load i32, i32* %9, align 4, !dbg !10141
  %86 = insertvalue { i8*, i32 } undef, i8* %84, 0, !dbg !10141
  %87 = insertvalue { i8*, i32 } %86, i32 %85, 1, !dbg !10141
  resume { i8*, i32 } %87, !dbg !10141
}

; Function Attrs: inlinehint nounwind
define linkonce_odr %class.ap_private.2* @_ZN10ap_privateILi2ELb0ELb1EED2Ev(%class.ap_private.2* returned) unnamed_addr #7 comdat align 2 personality i8* bitcast (i32 (...)* @__gxx_personality_v0 to i8*) !dbg !10143 !xidane.fname !8701 !xidane.function_declaration_type !8034 !xidane.function_declaration_filename !8347 {
  %2 = alloca %class.ap_private.2*, align 4
  store %class.ap_private.2* %0, %class.ap_private.2** %2, align 4
  call void @llvm.dbg.declare(metadata %class.ap_private.2** %2, metadata !10144, metadata !8082), !dbg !10145
  %3 = load %class.ap_private.2*, %class.ap_private.2** %2, align 4
  invoke void @_ZN10ap_privateILi2ELb0ELb1EE12check_canaryEv(%class.ap_private.2* %3)
          to label %4 unwind label %5, !dbg !10146

; <label>:4:                                      ; preds = %1
  ret %class.ap_private.2* %3, !dbg !10148

; <label>:5:                                      ; preds = %1
  %6 = landingpad { i8*, i32 }
          catch i8* null, !dbg !10150
  %7 = extractvalue { i8*, i32 } %6, 0, !dbg !10150
  call void @__clang_call_terminate(i8* %7) #11, !dbg !10150
  unreachable, !dbg !10150
}

; Function Attrs: inlinehint nounwind
define linkonce_odr zeroext i8 @_ZNK10ap_privateILi2ELb0ELb1EE7get_VALEv(%class.ap_private.2*) #7 comdat align 2 !dbg !10152 !xidane.fname !10153 !xidane.function_declaration_type !10154 !xidane.function_declaration_filename !8347 {
  %2 = alloca %class.ap_private.2*, align 4
  store %class.ap_private.2* %0, %class.ap_private.2** %2, align 4
  call void @llvm.dbg.declare(metadata %class.ap_private.2** %2, metadata !10155, metadata !8082), !dbg !10156
  %3 = load %class.ap_private.2*, %class.ap_private.2** %2, align 4
  %4 = getelementptr inbounds %class.ap_private.2, %class.ap_private.2* %3, i32 0, i32 0, !dbg !10157
  %5 = load i8, i8* %4, align 1, !dbg !10157
  ret i8 %5, !dbg !10158
}

; Function Attrs: inlinehint nounwind
define linkonce_odr %class.ap_private.2* @_ZN10ap_privateILi2ELb0ELb1EEC2Ei(%class.ap_private.2* returned, i32) unnamed_addr #7 comdat align 2 !dbg !10159 !xidane.fname !9718 !xidane.function_declaration_type !8338 !xidane.function_declaration_filename !8347 {
  %3 = alloca %class.ap_private.2*, align 4
  %4 = alloca i32, align 4
  store %class.ap_private.2* %0, %class.ap_private.2** %3, align 4
  call void @llvm.dbg.declare(metadata %class.ap_private.2** %3, metadata !10160, metadata !8082), !dbg !10161
  store i32 %1, i32* %4, align 4
  call void @llvm.dbg.declare(metadata i32* %4, metadata !10162, metadata !8082), !dbg !10163
  %5 = load %class.ap_private.2*, %class.ap_private.2** %3, align 4
  %6 = getelementptr inbounds %class.ap_private.2, %class.ap_private.2* %5, i32 0, i32 0, !dbg !10163
  %7 = load i32, i32* %4, align 4, !dbg !10163
  %8 = trunc i32 %7 to i8, !dbg !10163
  store i8 %8, i8* %6, align 1, !dbg !10163
  call void @_ZN10ap_privateILi2ELb0ELb1EE10set_canaryEv(%class.ap_private.2* %5), !dbg !10164
  call void @_ZN10ap_privateILi2ELb0ELb1EE15clearUnusedBitsEv(%class.ap_private.2* %5), !dbg !10166
  call void @_ZN10ap_privateILi2ELb0ELb1EE12check_canaryEv(%class.ap_private.2* %5), !dbg !10168
  ret %class.ap_private.2* %5, !dbg !10163
}

; Function Attrs: inlinehint
define linkonce_odr void @_ZN10ap_privateILi2ELb0ELb1EEixEi(%struct.ap_bit_ref.12* noalias sret, %class.ap_private.2*, i32) #6 comdat align 2 !dbg !10170 !xidane.fname !8604 !xidane.function_declaration_type !10171 !xidane.function_declaration_filename !8347 {
  %4 = alloca %class.ap_private.2*, align 4
  %5 = alloca i32, align 4
  store %class.ap_private.2* %1, %class.ap_private.2** %4, align 4
  call void @llvm.dbg.declare(metadata %class.ap_private.2** %4, metadata !10172, metadata !8082), !dbg !10173
  store i32 %2, i32* %5, align 4
  call void @llvm.dbg.declare(metadata i32* %5, metadata !10174, metadata !8082), !dbg !10175
  %6 = load %class.ap_private.2*, %class.ap_private.2** %4, align 4
  %7 = load i32, i32* %5, align 4, !dbg !10176
  %8 = call %struct.ap_bit_ref.12* @_ZN10ap_bit_refILi2ELb0EEC2ER10ap_privateILi2ELb0ELb1EEi(%struct.ap_bit_ref.12* %0, %class.ap_private.2* dereferenceable(1) %6, i32 %7), !dbg !10177
  ret void, !dbg !10178
}

; Function Attrs: inlinehint
define linkonce_odr zeroext i1 @_ZNK10ap_bit_refILi2ELb0EEcvbEv(%struct.ap_bit_ref.12*) #6 comdat align 2 !dbg !10179 !xidane.fname !10180 !xidane.function_declaration_type !10181 !xidane.function_declaration_filename !8367 {
  %2 = alloca %struct.ap_bit_ref.12*, align 4
  store %struct.ap_bit_ref.12* %0, %struct.ap_bit_ref.12** %2, align 4
  call void @llvm.dbg.declare(metadata %struct.ap_bit_ref.12** %2, metadata !10182, metadata !8082), !dbg !10184
  %3 = load %struct.ap_bit_ref.12*, %struct.ap_bit_ref.12** %2, align 4
  %4 = getelementptr inbounds %struct.ap_bit_ref.12, %struct.ap_bit_ref.12* %3, i32 0, i32 0, !dbg !10185
  %5 = load %class.ap_private.2*, %class.ap_private.2** %4, align 4, !dbg !10185
  %6 = getelementptr inbounds %struct.ap_bit_ref.12, %struct.ap_bit_ref.12* %3, i32 0, i32 1, !dbg !10186
  %7 = load i32, i32* %6, align 4, !dbg !10186
  %8 = call zeroext i1 @_ZNK10ap_privateILi2ELb0ELb1EE7get_bitEi(%class.ap_private.2* %5, i32 %7), !dbg !10187
  ret i1 %8, !dbg !10188
}

; Function Attrs: inlinehint nounwind
define linkonce_odr dereferenceable(1) %class.ap_private.2* @_ZN10ap_privateILi2ELb0ELb1EE3setEj(%class.ap_private.2*, i32) #7 comdat align 2 !dbg !10189 !xidane.fname !10190 !xidane.function_declaration_type !10191 !xidane.function_declaration_filename !8347 {
  %3 = alloca %class.ap_private.2*, align 4
  %4 = alloca i32, align 4
  store %class.ap_private.2* %0, %class.ap_private.2** %3, align 4
  call void @llvm.dbg.declare(metadata %class.ap_private.2** %3, metadata !10192, metadata !8082), !dbg !10193
  store i32 %1, i32* %4, align 4
  call void @llvm.dbg.declare(metadata i32* %4, metadata !10194, metadata !8082), !dbg !10195
  %5 = load %class.ap_private.2*, %class.ap_private.2** %3, align 4
  %6 = load i32, i32* %4, align 4, !dbg !10196
  %7 = zext i32 %6 to i64, !dbg !10197
  %8 = shl i64 1, %7, !dbg !10197
  %9 = getelementptr inbounds %class.ap_private.2, %class.ap_private.2* %5, i32 0, i32 0, !dbg !10198
  %10 = load i8, i8* %9, align 1, !dbg !10199
  %11 = zext i8 %10 to i64, !dbg !10199
  %12 = or i64 %11, %8, !dbg !10199
  %13 = trunc i64 %12 to i8, !dbg !10199
  store i8 %13, i8* %9, align 1, !dbg !10199
  call void @_ZN10ap_privateILi2ELb0ELb1EE15clearUnusedBitsEv(%class.ap_private.2* %5), !dbg !10200
  ret %class.ap_private.2* %5, !dbg !10201
}

; Function Attrs: nounwind
define linkonce_odr dereferenceable(1) %class.ap_private.2* @_ZN10ap_privateILi2ELb0ELb1EEaSERKS0_(%class.ap_private.2*, %class.ap_private.2* dereferenceable(1)) #8 comdat align 2 !dbg !10202 !xidane.fname !8614 !xidane.function_declaration_type !10203 !xidane.function_declaration_filename !8347 {
  %3 = alloca %class.ap_private.2*, align 4
  %4 = alloca %class.ap_private.2*, align 4
  store %class.ap_private.2* %0, %class.ap_private.2** %3, align 4
  call void @llvm.dbg.declare(metadata %class.ap_private.2** %3, metadata !10204, metadata !8082), !dbg !10205
  store %class.ap_private.2* %1, %class.ap_private.2** %4, align 4
  call void @llvm.dbg.declare(metadata %class.ap_private.2** %4, metadata !10206, metadata !8082), !dbg !10207
  %5 = load %class.ap_private.2*, %class.ap_private.2** %3, align 4
  %6 = load %class.ap_private.2*, %class.ap_private.2** %4, align 4, !dbg !10208
  %7 = call zeroext i8 @_ZNK10ap_privateILi2ELb0ELb1EE7get_VALEv(%class.ap_private.2* %6), !dbg !10209
  %8 = getelementptr inbounds %class.ap_private.2, %class.ap_private.2* %5, i32 0, i32 0, !dbg !10210
  store i8 %7, i8* %8, align 1, !dbg !10211
  ret %class.ap_private.2* %5, !dbg !10212
}

; Function Attrs: inlinehint
define linkonce_odr dereferenceable(1) %class.ap_private.2* @_ZrSILi2ELb0EER10ap_privateIXT_EXT0_EXleT_Li64EEES2_i(%class.ap_private.2* dereferenceable(1), i32) #6 comdat personality i8* bitcast (i32 (...)* @__gxx_personality_v0 to i8*) !dbg !10213 !xidane.fname !10216 !xidane.function_declaration_type !10217 !xidane.function_declaration_filename !8367 {
  %3 = alloca %class.ap_private.2*, align 4
  %4 = alloca i32, align 4
  %5 = alloca %class.ap_private.2, align 1
  %6 = alloca i8*
  %7 = alloca i32
  store %class.ap_private.2* %0, %class.ap_private.2** %3, align 4
  call void @llvm.dbg.declare(metadata %class.ap_private.2** %3, metadata !10218, metadata !8082), !dbg !10219
  store i32 %1, i32* %4, align 4
  call void @llvm.dbg.declare(metadata i32* %4, metadata !10220, metadata !8082), !dbg !10219
  %8 = load %class.ap_private.2*, %class.ap_private.2** %3, align 4, !dbg !10219
  %9 = load %class.ap_private.2*, %class.ap_private.2** %3, align 4, !dbg !10219
  %10 = load i32, i32* %4, align 4, !dbg !10219
  call void @_ZNK10ap_privateILi2ELb0ELb1EErsEi(%class.ap_private.2* sret %5, %class.ap_private.2* %9, i32 %10), !dbg !10219
  %11 = invoke dereferenceable(1) %class.ap_private.2* @_ZN10ap_privateILi2ELb0ELb1EEaSERKS0_(%class.ap_private.2* %8, %class.ap_private.2* dereferenceable(1) %5)
          to label %12 unwind label %15, !dbg !10219

; <label>:12:                                     ; preds = %2
  %13 = call %class.ap_private.2* @_ZN10ap_privateILi2ELb0ELb1EED2Ev(%class.ap_private.2* %5) #3, !dbg !10221
  %14 = load %class.ap_private.2*, %class.ap_private.2** %3, align 4, !dbg !10221
  ret %class.ap_private.2* %14, !dbg !10221

; <label>:15:                                     ; preds = %2
  %16 = landingpad { i8*, i32 }
          cleanup, !dbg !10223
  %17 = extractvalue { i8*, i32 } %16, 0, !dbg !10223
  store i8* %17, i8** %6, align 4, !dbg !10223
  %18 = extractvalue { i8*, i32 } %16, 1, !dbg !10223
  store i32 %18, i32* %7, align 4, !dbg !10223
  %19 = call %class.ap_private.2* @_ZN10ap_privateILi2ELb0ELb1EED2Ev(%class.ap_private.2* %5) #3, !dbg !10223
  br label %20, !dbg !10223

; <label>:20:                                     ; preds = %15
  %21 = load i8*, i8** %6, align 4, !dbg !10225
  %22 = load i32, i32* %7, align 4, !dbg !10225
  %23 = insertvalue { i8*, i32 } undef, i8* %21, 0, !dbg !10225
  %24 = insertvalue { i8*, i32 } %23, i32 %22, 1, !dbg !10225
  resume { i8*, i32 } %24, !dbg !10225
}

; Function Attrs: inlinehint nounwind
define linkonce_odr dereferenceable(1) %class.ap_private.2* @_ZN10ap_privateILi2ELb0ELb1EEaNEy(%class.ap_private.2*, i64) #7 comdat align 2 !dbg !10227 !xidane.fname !10228 !xidane.function_declaration_type !10229 !xidane.function_declaration_filename !8347 {
  %3 = alloca %class.ap_private.2*, align 4
  %4 = alloca i64, align 8
  store %class.ap_private.2* %0, %class.ap_private.2** %3, align 4
  call void @llvm.dbg.declare(metadata %class.ap_private.2** %3, metadata !10230, metadata !8082), !dbg !10231
  store i64 %1, i64* %4, align 8
  call void @llvm.dbg.declare(metadata i64* %4, metadata !10232, metadata !8082), !dbg !10233
  %5 = load %class.ap_private.2*, %class.ap_private.2** %3, align 4
  %6 = load i64, i64* %4, align 8, !dbg !10234
  %7 = trunc i64 %6 to i8, !dbg !10234
  %8 = zext i8 %7 to i32, !dbg !10235
  %9 = getelementptr inbounds %class.ap_private.2, %class.ap_private.2* %5, i32 0, i32 0, !dbg !10236
  %10 = load i8, i8* %9, align 1, !dbg !10237
  %11 = zext i8 %10 to i32, !dbg !10237
  %12 = and i32 %11, %8, !dbg !10237
  %13 = trunc i32 %12 to i8, !dbg !10237
  store i8 %13, i8* %9, align 1, !dbg !10237
  call void @_ZN10ap_privateILi2ELb0ELb1EE15clearUnusedBitsEv(%class.ap_private.2* %5), !dbg !10238
  ret %class.ap_private.2* %5, !dbg !10239
}

; Function Attrs: inlinehint
define linkonce_odr %struct.ap_bit_ref.12* @_ZN10ap_bit_refILi2ELb0EEC2ER10ap_privateILi2ELb0ELb1EEi(%struct.ap_bit_ref.12* returned, %class.ap_private.2* dereferenceable(1), i32) unnamed_addr #6 comdat align 2 !dbg !10240 !xidane.fname !10241 !xidane.function_declaration_type !10242 !xidane.function_declaration_filename !8367 {
  %4 = alloca %struct.ap_bit_ref.12*, align 4
  %5 = alloca %struct.ap_bit_ref.12*, align 4
  %6 = alloca %class.ap_private.2*, align 4
  %7 = alloca i32, align 4
  store %struct.ap_bit_ref.12* %0, %struct.ap_bit_ref.12** %5, align 4
  call void @llvm.dbg.declare(metadata %struct.ap_bit_ref.12** %5, metadata !10243, metadata !8082), !dbg !10245
  store %class.ap_private.2* %1, %class.ap_private.2** %6, align 4
  call void @llvm.dbg.declare(metadata %class.ap_private.2** %6, metadata !10246, metadata !8082), !dbg !10247
  store i32 %2, i32* %7, align 4
  call void @llvm.dbg.declare(metadata i32* %7, metadata !10248, metadata !8082), !dbg !10249
  %8 = load %struct.ap_bit_ref.12*, %struct.ap_bit_ref.12** %5, align 4
  store %struct.ap_bit_ref.12* %8, %struct.ap_bit_ref.12** %4, align 4
  %9 = getelementptr inbounds %struct.ap_bit_ref.12, %struct.ap_bit_ref.12* %8, i32 0, i32 0, !dbg !10250
  %10 = load %class.ap_private.2*, %class.ap_private.2** %6, align 4, !dbg !10251
  store %class.ap_private.2* %10, %class.ap_private.2** %9, align 4, !dbg !10250
  %11 = getelementptr inbounds %struct.ap_bit_ref.12, %struct.ap_bit_ref.12* %8, i32 0, i32 1, !dbg !10252
  %12 = load i32, i32* %7, align 4, !dbg !10253
  store i32 %12, i32* %11, align 4, !dbg !10252
  %13 = getelementptr inbounds %struct.ap_bit_ref.12, %struct.ap_bit_ref.12* %8, i32 0, i32 1, !dbg !10254
  %14 = load i32, i32* %13, align 4, !dbg !10254
  %15 = icmp slt i32 %14, 0, !dbg !10257
  br i1 %15, label %16, label %23, !dbg !10258

; <label>:16:                                     ; preds = %3
  %17 = load %struct._reent*, %struct._reent** @_impure_ptr, align 4, !dbg !10259
  %18 = getelementptr inbounds %struct._reent, %struct._reent* %17, i32 0, i32 3, !dbg !10259
  %19 = load %struct.__sFILE*, %struct.__sFILE** %18, align 4, !dbg !10259
  %20 = getelementptr inbounds %struct.ap_bit_ref.12, %struct.ap_bit_ref.12* %8, i32 0, i32 1, !dbg !10260
  %21 = load i32, i32* %20, align 4, !dbg !10260
  %22 = call i32 (%struct.__sFILE*, i8*, ...) @fprintf(%struct.__sFILE* %19, i8* getelementptr inbounds ([56 x i8], [56 x i8]* @.str.23, i32 0, i32 0), i32 %21), !dbg !10261
  br label %23, !dbg !10261

; <label>:23:                                     ; preds = %16, %3
  %24 = getelementptr inbounds %struct.ap_bit_ref.12, %struct.ap_bit_ref.12* %8, i32 0, i32 1, !dbg !10262
  %25 = load i32, i32* %24, align 4, !dbg !10262
  %26 = icmp sge i32 %25, 2, !dbg !10264
  br i1 %26, label %27, label %34, !dbg !10265

; <label>:27:                                     ; preds = %23
  %28 = load %struct._reent*, %struct._reent** @_impure_ptr, align 4, !dbg !10266
  %29 = getelementptr inbounds %struct._reent, %struct._reent* %28, i32 0, i32 3, !dbg !10266
  %30 = load %struct.__sFILE*, %struct.__sFILE** %29, align 4, !dbg !10266
  %31 = getelementptr inbounds %struct.ap_bit_ref.12, %struct.ap_bit_ref.12* %8, i32 0, i32 1, !dbg !10267
  %32 = load i32, i32* %31, align 4, !dbg !10267
  %33 = call i32 (%struct.__sFILE*, i8*, ...) @fprintf(%struct.__sFILE* %30, i8* getelementptr inbounds ([54 x i8], [54 x i8]* @.str.24, i32 0, i32 0), i32 %32, i32 2), !dbg !10268
  br label %34, !dbg !10268

; <label>:34:                                     ; preds = %27, %23
  %35 = load %struct.ap_bit_ref.12*, %struct.ap_bit_ref.12** %4, align 4, !dbg !10269
  ret %struct.ap_bit_ref.12* %35, !dbg !10269
}

; Function Attrs: inlinehint
define linkonce_odr zeroext i1 @_ZNK10ap_privateILi2ELb0ELb1EE7get_bitEi(%class.ap_private.2*, i32) #6 comdat align 2 !dbg !10270 !xidane.fname !10271 !xidane.function_declaration_type !10272 !xidane.function_declaration_filename !8347 {
  %3 = alloca %class.ap_private.2*, align 4
  %4 = alloca i32, align 4
  store %class.ap_private.2* %0, %class.ap_private.2** %3, align 4
