; ModuleID = '/mnt/icgridio2/safe/giesen/HLS_tuner/1/TestApps/Rosetta/BNN/Sources/utils/Common.cpp'
source_filename = "/mnt/icgridio2/safe/giesen/HLS_tuner/1/TestApps/Rosetta/BNN/Sources/utils/Common.cpp"
target datalayout = "e-m:e-p:32:32-i64:64-v128:64:128-a:0:32-n32-S64"
target triple = "armv7-none--eabi"

%"class.std::ios_base::Init" = type { i8 }
%struct._reent = type { i32, %struct.__sFILE*, %struct.__sFILE*, %struct.__sFILE*, i32, [25 x i8], i32, i8*, i32, void (%struct._reent*)*, %struct._Bigint*, i32, %struct._Bigint*, %struct._Bigint**, i32, i8*, %union.anon.1, %struct._atexit*, %struct._atexit, void (i32)**, %struct._glue, [3 x %struct.__sFILE] }
%struct.__sFILE = type { i8*, i32, i32, i16, i16, %struct.__sbuf, i32, i8*, i32 (%struct._reent*, i8*, i8*, i32)*, i32 (%struct._reent*, i8*, i8*, i32)*, i32 (%struct._reent*, i8*, i32, i32)*, i32 (%struct._reent*, i8*)*, %struct.__sbuf, i8*, i32, [3 x i8], [1 x i8], %struct.__sbuf, i32, i32, %struct._reent*, i32, %struct._mbstate_t, i32 }
%struct.__sbuf = type { i8*, i32 }
%struct._mbstate_t = type { i32, %union.anon.0 }
%union.anon.0 = type { i32 }
%struct._Bigint = type { %struct._Bigint*, i32, i32, i32, i32, [1 x i32] }
%union.anon.1 = type { %struct.anon, [32 x i8] }
%struct.anon = type { i32, i8*, [26 x i8], %struct.__tm, i32, i64, %struct._rand48, %struct._mbstate_t, %struct._mbstate_t, %struct._mbstate_t, [8 x i8], [24 x i8], i32, %struct._mbstate_t, %struct._mbstate_t, %struct._mbstate_t, %struct._mbstate_t, %struct._mbstate_t, i32 }
%struct.__tm = type { i32, i32, i32, i32, i32, i32, i32, i32, i32 }
%struct._rand48 = type { [3 x i16], [3 x i16], i16 }
%struct._atexit = type { %struct._atexit*, i32, [32 x void ()*], %struct._on_exit_args }
%struct._on_exit_args = type { [32 x i8*], [32 x i8*], i32, i32 }
%struct._glue = type { %struct._glue*, i32, %struct.__sFILE* }
%"class.std::__cxx11::basic_string" = type { %"struct.std::__cxx11::basic_string<char, std::char_traits<char>, std::allocator<char> >::_Alloc_hider", i32, %union.anon }
%"struct.std::__cxx11::basic_string<char, std::char_traits<char>, std::allocator<char> >::_Alloc_hider" = type { i8* }
%union.anon = type { i32, [12 x i8] }
%"class.std::allocator" = type { i8 }

@_ZStL8__ioinit = internal global %"class.std::ios_base::Init" zeroinitializer, align 1
@__dso_handle = external global i8
@.str = private unnamed_addr constant [15 x i8] c"CRAFT_BNN_ROOT\00", align 1
@_impure_ptr = external global %struct._reent*, align 4
@.str.1 = private unnamed_addr constant [38 x i8] c"Cannot find CRAFT_BNN_ROOT directory\0A\00", align 1
@llvm.global_ctors = appending global [1 x { i32, void ()*, i8* }] [{ i32, void ()*, i8* } { i32 65535, void ()* @_GLOBAL__sub_I_Common.cpp, i8* null }]

define internal void @__cxx_global_var_init() #0 !dbg !1596 {
  %1 = call %"class.std::ios_base::Init"* @_ZNSt8ios_base4InitC1Ev(%"class.std::ios_base::Init"* @_ZStL8__ioinit), !dbg !1597
  %2 = call i32 @__cxa_atexit(void (i8*)* bitcast (%"class.std::ios_base::Init"* (%"class.std::ios_base::Init"*)* @_ZNSt8ios_base4InitD1Ev to void (i8*)*), i8* getelementptr inbounds (%"class.std::ios_base::Init", %"class.std::ios_base::Init"* @_ZStL8__ioinit, i32 0, i32 0), i8* @__dso_handle) #3, !dbg !1598
  ret void, !dbg !1597
}

declare !xidane.fname !1600 !xidane.function_declaration_type !1601 !xidane.function_declaration_filename !1602 %"class.std::ios_base::Init"* @_ZNSt8ios_base4InitC1Ev(%"class.std::ios_base::Init"* returned) unnamed_addr #1

; Function Attrs: nounwind
declare !xidane.fname !1603 !xidane.function_declaration_type !1601 !xidane.function_declaration_filename !1602 %"class.std::ios_base::Init"* @_ZNSt8ios_base4InitD1Ev(%"class.std::ios_base::Init"* returned) unnamed_addr #2

; Function Attrs: nounwind
declare i32 @__cxa_atexit(void (i8*)*, i8*, i8*) #3

define void @_Z12get_root_dirB5cxx11v(%"class.std::__cxx11::basic_string"* noalias sret) #0 personality i8* bitcast (i32 (...)* @__gxx_personality_v0 to i8*) !dbg !1604 !xidane.fname !1606 !xidane.function_declaration_type !1607 !xidane.function_declaration_filename !1608 {
  %2 = alloca i8*, align 4
  %3 = alloca %"class.std::allocator", align 1
  %4 = alloca i8*
  %5 = alloca i32
  call void @llvm.dbg.declare(metadata i8** %2, metadata !1609, metadata !1610), !dbg !1611
  %6 = call i8* @getenv(i8* getelementptr inbounds ([15 x i8], [15 x i8]* @.str, i32 0, i32 0)), !dbg !1612
  store i8* %6, i8** %2, align 4, !dbg !1611
  %7 = load i8*, i8** %2, align 4, !dbg !1613
  %8 = icmp ne i8* %7, null, !dbg !1613
  br i1 %8, label %14, label %9, !dbg !1615

; <label>:9:                                      ; preds = %1
  %10 = load %struct._reent*, %struct._reent** @_impure_ptr, align 4, !dbg !1616
  %11 = getelementptr inbounds %struct._reent, %struct._reent* %10, i32 0, i32 3, !dbg !1616
  %12 = load %struct.__sFILE*, %struct.__sFILE** %11, align 4, !dbg !1616
  %13 = call i32 (%struct.__sFILE*, i8*, ...) @fprintf(%struct.__sFILE* %12, i8* getelementptr inbounds ([38 x i8], [38 x i8]* @.str.1, i32 0, i32 0)), !dbg !1618
  call void @exit(i32 -1) #6, !dbg !1619
  unreachable, !dbg !1619

; <label>:14:                                     ; preds = %1
  %15 = load i8*, i8** %2, align 4, !dbg !1620
  %16 = call %"class.std::allocator"* @_ZNSaIcEC1Ev(%"class.std::allocator"* %3) #3, !dbg !1621
  %17 = invoke %"class.std::__cxx11::basic_string"* @_ZNSt7__cxx1112basic_stringIcSt11char_traitsIcESaIcEEC1EPKcRKS3_(%"class.std::__cxx11::basic_string"* %0, i8* %15, %"class.std::allocator"* dereferenceable(1) %3)
          to label %18 unwind label %20, !dbg !1621

; <label>:18:                                     ; preds = %14
  %19 = call %"class.std::allocator"* @_ZNSaIcED1Ev(%"class.std::allocator"* %3) #3, !dbg !1622
  ret void, !dbg !1622

; <label>:20:                                     ; preds = %14
  %21 = landingpad { i8*, i32 }
          cleanup, !dbg !1624
  %22 = extractvalue { i8*, i32 } %21, 0, !dbg !1624
  store i8* %22, i8** %4, align 4, !dbg !1624
  %23 = extractvalue { i8*, i32 } %21, 1, !dbg !1624
  store i32 %23, i32* %5, align 4, !dbg !1624
  %24 = call %"class.std::allocator"* @_ZNSaIcED1Ev(%"class.std::allocator"* %3) #3, !dbg !1625
  br label %25, !dbg !1625

; <label>:25:                                     ; preds = %20
  %26 = load i8*, i8** %4, align 4, !dbg !1627
  %27 = load i32, i32* %5, align 4, !dbg !1627
  %28 = insertvalue { i8*, i32 } undef, i8* %26, 0, !dbg !1627
  %29 = insertvalue { i8*, i32 } %28, i32 %27, 1, !dbg !1627
  resume { i8*, i32 } %29, !dbg !1627
}

; Function Attrs: nounwind readnone
declare void @llvm.dbg.declare(metadata, metadata, metadata) #4

declare !xidane.fname !1629 !xidane.function_declaration_type !1630 !xidane.function_declaration_filename !1631 !xidane.ExternC !1632 i8* @getenv(i8*) #1

declare !xidane.fname !1633 !xidane.function_declaration_type !1634 !xidane.function_declaration_filename !1635 !xidane.ExternC !1632 i32 @fprintf(%struct.__sFILE*, i8*, ...) #1

; Function Attrs: noreturn
declare !xidane.fname !1636 !xidane.function_declaration_type !1637 !xidane.function_declaration_filename !1631 !xidane.ExternC !1632 void @exit(i32) #5

; Function Attrs: nounwind
declare !xidane.fname !1638 !xidane.function_declaration_type !1601 !xidane.function_declaration_filename !1639 %"class.std::allocator"* @_ZNSaIcEC1Ev(%"class.std::allocator"* returned) unnamed_addr #2

declare !xidane.fname !1640 !xidane.function_declaration_type !1641 !xidane.function_declaration_filename !1642 %"class.std::__cxx11::basic_string"* @_ZNSt7__cxx1112basic_stringIcSt11char_traitsIcESaIcEEC1EPKcRKS3_(%"class.std::__cxx11::basic_string"* returned, i8*, %"class.std::allocator"* dereferenceable(1)) unnamed_addr #1

declare i32 @__gxx_personality_v0(...)

; Function Attrs: nounwind
declare !xidane.fname !1643 !xidane.function_declaration_type !1601 !xidane.function_declaration_filename !1639 %"class.std::allocator"* @_ZNSaIcED1Ev(%"class.std::allocator"* returned) unnamed_addr #2

define internal void @_GLOBAL__sub_I_Common.cpp() #0 !dbg !1644 {
  call void @__cxx_global_var_init(), !dbg !1646
  ret void
}

attributes #0 = { "disable-tail-calls"="false" "less-precise-fpmad"="false" "no-frame-pointer-elim"="true" "no-frame-pointer-elim-non-leaf" "no-infs-fp-math"="false" "no-jump-tables"="false" "no-nans-fp-math"="false" "no-signed-zeros-fp-math"="false" "stack-protector-buffer-size"="8" "target-cpu"="cortex-a9" "target-features"="+dsp,+strict-align,+vfp3,-crypto,-d16,-fp-armv8,-fp-only-sp,-fp16,-neon,-vfp4" "unsafe-fp-math"="false" "use-soft-float"="false" }
attributes #1 = { "disable-tail-calls"="false" "less-precise-fpmad"="false" "no-frame-pointer-elim"="true" "no-frame-pointer-elim-non-leaf" "no-infs-fp-math"="false" "no-nans-fp-math"="false" "no-signed-zeros-fp-math"="false" "stack-protector-buffer-size"="8" "target-cpu"="cortex-a9" "target-features"="+dsp,+strict-align,+vfp3,-crypto,-d16,-fp-armv8,-fp-only-sp,-fp16,-neon,-vfp4" "unsafe-fp-math"="false" "use-soft-float"="false" }
attributes #2 = { nounwind "disable-tail-calls"="false" "less-precise-fpmad"="false" "no-frame-pointer-elim"="true" "no-frame-pointer-elim-non-leaf" "no-infs-fp-math"="false" "no-nans-fp-math"="false" "no-signed-zeros-fp-math"="false" "stack-protector-buffer-size"="8" "target-cpu"="cortex-a9" "target-features"="+dsp,+strict-align,+vfp3,-crypto,-d16,-fp-armv8,-fp-only-sp,-fp16,-neon,-vfp4" "unsafe-fp-math"="false" "use-soft-float"="false" }
attributes #3 = { nounwind }
attributes #4 = { nounwind readnone }
attributes #5 = { noreturn "disable-tail-calls"="false" "less-precise-fpmad"="false" "no-frame-pointer-elim"="true" "no-frame-pointer-elim-non-leaf" "no-infs-fp-math"="false" "no-nans-fp-math"="false" "no-signed-zeros-fp-math"="false" "stack-protector-buffer-size"="8" "target-cpu"="cortex-a9" "target-features"="+dsp,+strict-align,+vfp3,-crypto,-d16,-fp-armv8,-fp-only-sp,-fp16,-neon,-vfp4" "unsafe-fp-math"="false" "use-soft-float"="false" }
attributes #6 = { noreturn }

!llvm.dbg.cu = !{!0}
!llvm.module.flags = !{!1591, !1592, !1593, !1594}
!llvm.ident = !{!1595}

!0 = distinct !DICompileUnit(language: DW_LANG_C_plus_plus, file: !1, producer: "clang version 3.9.0 (tags/RELEASE_390/final)", isOptimized: false, runtimeVersion: 0, emissionKind: FullDebug, enums: !2, retainedTypes: !3, globals: !11, imports: !29)
!1 = !DIFile(filename: "/mnt/icgridio2/safe/giesen/HLS_tuner/1/TestApps/Rosetta/BNN/Sources/utils/Common.cpp", directory: "/scratch/local/tmp.yK7okjyWNi")
!2 = !{}
!3 = !{!4}
!4 = !DIDerivedType(tag: DW_TAG_typedef, name: "string", scope: !6, file: !5, line: 74, baseType: !9)
!5 = !DIFile(filename: "/mnt/icgridio2/safe/SDSoC/SDx/2017.1/SDK/gnu/aarch32/lin/gcc-arm-none-eabi/arm-none-eabi/include/c++/6.2.1/bits/stringfwd.h", directory: "/scratch/local/tmp.yK7okjyWNi")
!6 = !DINamespace(name: "__cxx11", scope: !8, file: !7, line: 223)
!7 = !DIFile(filename: "/mnt/icgridio2/safe/SDSoC/SDx/2017.1/SDK/gnu/aarch32/lin/gcc-arm-none-eabi/arm-none-eabi/include/c++/6.2.1/arm-none-eabi/bits/c++config.h", directory: "/scratch/local/tmp.yK7okjyWNi")
!8 = !DINamespace(name: "std", scope: null, file: !7, line: 199)
!9 = !DICompositeType(tag: DW_TAG_class_type, name: "basic_string<char, std::char_traits<char>, std::allocator<char> >", scope: !6, file: !10, line: 1573, size: 192, align: 32, flags: DIFlagFwdDecl, identifier: "_ZTSNSt7__cxx1112basic_stringIcSt11char_traitsIcESaIcEEE")
!10 = !DIFile(filename: "/mnt/icgridio2/safe/SDSoC/SDx/2017.1/SDK/gnu/aarch32/lin/gcc-arm-none-eabi/arm-none-eabi/include/c++/6.2.1/bits/basic_string.tcc", directory: "/scratch/local/tmp.yK7okjyWNi")
!11 = !{!12}
!12 = distinct !DIGlobalVariable(name: "__ioinit", linkageName: "_ZStL8__ioinit", scope: !8, file: !13, line: 74, type: !14, isLocal: true, isDefinition: true, variable: %"class.std::ios_base::Init"* @_ZStL8__ioinit)
!13 = !DIFile(filename: "/mnt/icgridio2/safe/SDSoC/SDx/2017.1/SDK/gnu/aarch32/lin/gcc-arm-none-eabi/arm-none-eabi/include/c++/6.2.1/iostream", directory: "/scratch/local/tmp.yK7okjyWNi")
!14 = distinct !DICompositeType(tag: DW_TAG_class_type, name: "Init", scope: !16, file: !15, line: 601, size: 8, align: 8, elements: !17, identifier: "_ZTSNSt8ios_base4InitE")
!15 = !DIFile(filename: "/mnt/icgridio2/safe/SDSoC/SDx/2017.1/SDK/gnu/aarch32/lin/gcc-arm-none-eabi/arm-none-eabi/include/c++/6.2.1/bits/ios_base.h", directory: "/scratch/local/tmp.yK7okjyWNi")
!16 = !DICompositeType(tag: DW_TAG_class_type, name: "ios_base", scope: !8, file: !15, line: 228, size: 896, align: 32, flags: DIFlagFwdDecl, identifier: "_ZTSSt8ios_base")
!17 = !{!18, !22, !24, !28}
!18 = !DIDerivedType(tag: DW_TAG_member, name: "_S_refcount", scope: !14, file: !15, line: 609, baseType: !19, flags: DIFlagStaticMember)
!19 = !DIDerivedType(tag: DW_TAG_typedef, name: "_Atomic_word", file: !20, line: 32, baseType: !21)
!20 = !DIFile(filename: "/mnt/icgridio2/safe/SDSoC/SDx/2017.1/SDK/gnu/aarch32/lin/gcc-arm-none-eabi/arm-none-eabi/include/c++/6.2.1/arm-none-eabi/bits/atomic_word.h", directory: "/scratch/local/tmp.yK7okjyWNi")
!21 = !DIBasicType(name: "int", size: 32, align: 32, encoding: DW_ATE_signed)
!22 = !DIDerivedType(tag: DW_TAG_member, name: "_S_synced_with_stdio", scope: !14, file: !15, line: 610, baseType: !23, flags: DIFlagStaticMember)
!23 = !DIBasicType(name: "bool", size: 8, align: 8, encoding: DW_ATE_boolean)
!24 = !DISubprogram(name: "Init", scope: !14, file: !15, line: 605, type: !25, isLocal: false, isDefinition: false, scopeLine: 605, flags: DIFlagPublic | DIFlagPrototyped, isOptimized: false)
!25 = !DISubroutineType(types: !26)
!26 = !{null, !27}
!27 = !DIDerivedType(tag: DW_TAG_pointer_type, baseType: !14, size: 32, align: 32, flags: DIFlagArtificial | DIFlagObjectPointer)
!28 = !DISubprogram(name: "~Init", scope: !14, file: !15, line: 606, type: !25, isLocal: false, isDefinition: false, scopeLine: 606, flags: DIFlagPublic | DIFlagPrototyped, isOptimized: false)
!29 = !{!30, !34, !38, !56, !57, !61, !258, !264, !268, !274, !278, !282, !284, !286, !290, !296, !300, !306, !311, !313, !317, !321, !325, !329, !340, !342, !346, !350, !354, !356, !360, !364, !368, !370, !372, !376, !394, !398, !402, !406, !408, !413, !415, !421, !426, !430, !434, !438, !442, !446, !448, !450, !452, !456, !460, !462, !466, !470, !472, !474, !478, !484, !489, !493, !494, !495, !496, !497, !498, !499, !500, !501, !502, !503, !509, !512, !515, !518, !521, !523, !525, !527, !530, !533, !536, !539, !541, !544, !547, !550, !553, !556, !558, !560, !562, !564, !567, !570, !573, !576, !578, !581, !634, !638, !640, !642, !645, !649, !654, !659, !661, !663, !665, !667, !669, !671, !673, !675, !677, !679, !681, !683, !685, !689, !695, !697, !699, !703, !707, !711, !715, !725, !729, !733, !735, !739, !743, !747, !751, !755, !759, !763, !767, !771, !775, !779, !783, !788, !792, !796, !798, !802, !806, !812, !814, !818, !822, !826, !830, !834, !838, !842, !843, !844, !845, !848, !849, !850, !851, !852, !853, !854, !856, !859, !864, !868, !870, !872, !874, !876, !881, !885, !889, !893, !897, !901, !905, !909, !911, !915, !921, !925, !929, !931, !933, !937, !941, !945, !947, !949, !951, !953, !957, !959, !961, !965, !969, !973, !977, !981, !983, !985, !989, !993, !997, !1001, !1003, !1005, !1009, !1013, !1014, !1015, !1016, !1017, !1018, !1023, !1025, !1027, !1031, !1033, !1035, !1037, !1039, !1041, !1043, !1045, !1050, !1054, !1056, !1058, !1063, !1065, !1067, !1069, !1071, !1073, !1075, !1077, !1079, !1081, !1085, !1089, !1091, !1093, !1095, !1097, !1099, !1101, !1103, !1105, !1107, !1109, !1113, !1117, !1119, !1121, !1123, !1125, !1127, !1129, !1131, !1133, !1135, !1137, !1139, !1141, !1143, !1145, !1147, !1151, !1155, !1159, !1161, !1163, !1165, !1167, !1169, !1171, !1173, !1175, !1177, !1181, !1185, !1189, !1191, !1193, !1195, !1199, !1203, !1207, !1209, !1211, !1213, !1215, !1217, !1219, !1221, !1223, !1225, !1227, !1229, !1231, !1235, !1239, !1243, !1245, !1247, !1249, !1251, !1255, !1259, !1261, !1263, !1265, !1267, !1269, !1271, !1275, !1279, !1281, !1283, !1285, !1287, !1291, !1295, !1299, !1301, !1303, !1305, !1307, !1309, !1311, !1315, !1319, !1323, !1325, !1329, !1333, !1335, !1337, !1339, !1341, !1343, !1345, !1351, !1354, !1356, !1357, !1359, !1361, !1363, !1365, !1369, !1371, !1373, !1375, !1377, !1379, !1381, !1383, !1385, !1389, !1393, !1395, !1399, !1403, !1408, !1412, !1416, !1418, !1422, !1426, !1428, !1430, !1432, !1436, !1440, !1444, !1448, !1452, !1454, !1456, !1458, !1462, !1466, !1470, !1472, !1474, !1492, !1505, !1521, !1525, !1527, !1529, !1531, !1533, !1537, !1539, !1541, !1543, !1545, !1547, !1550, !1552, !1553, !1557, !1561, !1566, !1571, !1575, !1581, !1585, !1587}
!30 = !DIImportedEntity(tag: DW_TAG_imported_declaration, scope: !8, entity: !31, line: 56)
!31 = !DIDerivedType(tag: DW_TAG_typedef, name: "max_align_t", file: !32, line: 429, baseType: !33)
!32 = !DIFile(filename: "/mnt/icgridio2/safe/SDSoC/SDx/2017.1/SDK/gnu/aarch32/lin/gcc-arm-none-eabi/lib/gcc/arm-none-eabi/6.2.1/include/stddef.h", directory: "/scratch/local/tmp.yK7okjyWNi")
!33 = !DICompositeType(tag: DW_TAG_structure_type, file: !32, line: 426, size: 128, align: 64, flags: DIFlagFwdDecl, identifier: "_ZTS11max_align_t")
!34 = !DIImportedEntity(tag: DW_TAG_imported_module, scope: !35, entity: !37, line: 58)
!35 = !DINamespace(name: "__gnu_debug", scope: null, file: !36, line: 56)
!36 = !DIFile(filename: "/mnt/icgridio2/safe/SDSoC/SDx/2017.1/SDK/gnu/aarch32/lin/gcc-arm-none-eabi/arm-none-eabi/include/c++/6.2.1/debug/debug.h", directory: "/scratch/local/tmp.yK7okjyWNi")
!37 = !DINamespace(name: "__debug", scope: !8, file: !36, line: 50)
!38 = !DIImportedEntity(tag: DW_TAG_imported_declaration, scope: !8, entity: !39, line: 64)
!39 = !DIDerivedType(tag: DW_TAG_typedef, name: "mbstate_t", file: !40, line: 63, baseType: !41)
!40 = !DIFile(filename: "/mnt/icgridio2/safe/SDSoC/SDx/2017.1/SDK/gnu/aarch32/lin/gcc-arm-none-eabi/arm-none-eabi/libc/usr/include/wchar.h", directory: "/scratch/local/tmp.yK7okjyWNi")
!41 = !DIDerivedType(tag: DW_TAG_typedef, name: "_mbstate_t", file: !42, line: 79, baseType: !43)
!42 = !DIFile(filename: "/mnt/icgridio2/safe/SDSoC/SDx/2017.1/SDK/gnu/aarch32/lin/gcc-arm-none-eabi/arm-none-eabi/libc/usr/include/sys/_types.h", directory: "/scratch/local/tmp.yK7okjyWNi")
!43 = distinct !DICompositeType(tag: DW_TAG_structure_type, file: !42, line: 71, size: 64, align: 32, elements: !44, identifier: "_ZTS10_mbstate_t")
!44 = !{!45, !46}
!45 = !DIDerivedType(tag: DW_TAG_member, name: "__count", scope: !43, file: !42, line: 73, baseType: !21, size: 32, align: 32)
!46 = !DIDerivedType(tag: DW_TAG_member, name: "__value", scope: !43, file: !42, line: 78, baseType: !47, size: 32, align: 32, offset: 32)
!47 = distinct !DICompositeType(tag: DW_TAG_union_type, scope: !43, file: !42, line: 74, size: 32, align: 32, elements: !48, identifier: "_ZTSN10_mbstate_tUt_E")
!48 = !{!49, !51}
!49 = !DIDerivedType(tag: DW_TAG_member, name: "__wch", scope: !47, file: !42, line: 76, baseType: !50, size: 32, align: 32)
!50 = !DIDerivedType(tag: DW_TAG_typedef, name: "wint_t", file: !32, line: 357, baseType: !21)
!51 = !DIDerivedType(tag: DW_TAG_member, name: "__wchb", scope: !47, file: !42, line: 77, baseType: !52, size: 32, align: 8)
!52 = !DICompositeType(tag: DW_TAG_array_type, baseType: !53, size: 32, align: 8, elements: !54)
!53 = !DIBasicType(name: "unsigned char", size: 8, align: 8, encoding: DW_ATE_unsigned_char)
!54 = !{!55}
!55 = !DISubrange(count: 4)
!56 = !DIImportedEntity(tag: DW_TAG_imported_declaration, scope: !8, entity: !50, line: 139)
!57 = !DIImportedEntity(tag: DW_TAG_imported_declaration, scope: !8, entity: !58, line: 141)
!58 = !DISubprogram(name: "btowc", scope: !40, file: !40, line: 66, type: !59, isLocal: false, isDefinition: false, flags: DIFlagPrototyped, isOptimized: false)
!59 = !DISubroutineType(types: !60)
!60 = !{!50, !21}
!61 = !DIImportedEntity(tag: DW_TAG_imported_declaration, scope: !8, entity: !62, line: 142)
!62 = !DISubprogram(name: "fgetwc", scope: !40, file: !40, line: 151, type: !63, isLocal: false, isDefinition: false, flags: DIFlagPrototyped, isOptimized: false)
!63 = !DISubroutineType(types: !64)
!64 = !{!50, !65}
!65 = !DIDerivedType(tag: DW_TAG_pointer_type, baseType: !66, size: 32, align: 32)
!66 = !DIDerivedType(tag: DW_TAG_typedef, name: "__FILE", file: !67, line: 285, baseType: !68)
!67 = !DIFile(filename: "/mnt/icgridio2/safe/SDSoC/SDx/2017.1/SDK/gnu/aarch32/lin/gcc-arm-none-eabi/arm-none-eabi/libc/usr/include/sys/reent.h", directory: "/scratch/local/tmp.yK7okjyWNi")
!68 = distinct !DICompositeType(tag: DW_TAG_structure_type, name: "__sFILE", file: !67, line: 179, size: 832, align: 32, elements: !69, identifier: "_ZTS7__sFILE")
!69 = !{!70, !72, !73, !74, !76, !77, !82, !83, !85, !224, !228, !234, !238, !239, !240, !241, !243, !247, !248, !249, !251, !252, !256, !257}
!70 = !DIDerivedType(tag: DW_TAG_member, name: "_p", scope: !68, file: !67, line: 180, baseType: !71, size: 32, align: 32)
!71 = !DIDerivedType(tag: DW_TAG_pointer_type, baseType: !53, size: 32, align: 32)
!72 = !DIDerivedType(tag: DW_TAG_member, name: "_r", scope: !68, file: !67, line: 181, baseType: !21, size: 32, align: 32, offset: 32)
!73 = !DIDerivedType(tag: DW_TAG_member, name: "_w", scope: !68, file: !67, line: 182, baseType: !21, size: 32, align: 32, offset: 64)
!74 = !DIDerivedType(tag: DW_TAG_member, name: "_flags", scope: !68, file: !67, line: 183, baseType: !75, size: 16, align: 16, offset: 96)
!75 = !DIBasicType(name: "short", size: 16, align: 16, encoding: DW_ATE_signed)
!76 = !DIDerivedType(tag: DW_TAG_member, name: "_file", scope: !68, file: !67, line: 184, baseType: !75, size: 16, align: 16, offset: 112)
!77 = !DIDerivedType(tag: DW_TAG_member, name: "_bf", scope: !68, file: !67, line: 185, baseType: !78, size: 64, align: 32, offset: 128)
!78 = distinct !DICompositeType(tag: DW_TAG_structure_type, name: "__sbuf", file: !67, line: 115, size: 64, align: 32, elements: !79, identifier: "_ZTS6__sbuf")
!79 = !{!80, !81}
!80 = !DIDerivedType(tag: DW_TAG_member, name: "_base", scope: !78, file: !67, line: 116, baseType: !71, size: 32, align: 32)
!81 = !DIDerivedType(tag: DW_TAG_member, name: "_size", scope: !78, file: !67, line: 117, baseType: !21, size: 32, align: 32, offset: 32)
!82 = !DIDerivedType(tag: DW_TAG_member, name: "_lbfsize", scope: !68, file: !67, line: 186, baseType: !21, size: 32, align: 32, offset: 192)
!83 = !DIDerivedType(tag: DW_TAG_member, name: "_cookie", scope: !68, file: !67, line: 193, baseType: !84, size: 32, align: 32, offset: 224)
!84 = !DIDerivedType(tag: DW_TAG_pointer_type, baseType: null, size: 32, align: 32)
!85 = !DIDerivedType(tag: DW_TAG_member, name: "_read", scope: !68, file: !67, line: 195, baseType: !86, size: 32, align: 32, offset: 256)
!86 = !DIDerivedType(tag: DW_TAG_pointer_type, baseType: !87, size: 32, align: 32)
!87 = !DISubroutineType(types: !88)
!88 = !{!21, !89, !84, !120, !21}
!89 = !DIDerivedType(tag: DW_TAG_pointer_type, baseType: !90, size: 32, align: 32)
!90 = distinct !DICompositeType(tag: DW_TAG_structure_type, name: "_reent", file: !67, line: 568, size: 8512, align: 64, elements: !91, identifier: "_ZTS6_reent")
!91 = !{!92, !93, !94, !95, !96, !97, !102, !103, !106, !107, !111, !114, !115, !116, !118, !119, !121, !186, !209, !210, !215, !222}
!92 = !DIDerivedType(tag: DW_TAG_member, name: "_errno", scope: !90, file: !67, line: 570, baseType: !21, size: 32, align: 32)
!93 = !DIDerivedType(tag: DW_TAG_member, name: "_stdin", scope: !90, file: !67, line: 575, baseType: !65, size: 32, align: 32, offset: 32)
!94 = !DIDerivedType(tag: DW_TAG_member, name: "_stdout", scope: !90, file: !67, line: 575, baseType: !65, size: 32, align: 32, offset: 64)
!95 = !DIDerivedType(tag: DW_TAG_member, name: "_stderr", scope: !90, file: !67, line: 575, baseType: !65, size: 32, align: 32, offset: 96)
!96 = !DIDerivedType(tag: DW_TAG_member, name: "_inc", scope: !90, file: !67, line: 577, baseType: !21, size: 32, align: 32, offset: 128)
!97 = !DIDerivedType(tag: DW_TAG_member, name: "_emergency", scope: !90, file: !67, line: 578, baseType: !98, size: 200, align: 8, offset: 160)
!98 = !DICompositeType(tag: DW_TAG_array_type, baseType: !99, size: 200, align: 8, elements: !100)
!99 = !DIBasicType(name: "char", size: 8, align: 8, encoding: DW_ATE_unsigned_char)
!100 = !{!101}
!101 = !DISubrange(count: 25)
!102 = !DIDerivedType(tag: DW_TAG_member, name: "_current_category", scope: !90, file: !67, line: 580, baseType: !21, size: 32, align: 32, offset: 384)
!103 = !DIDerivedType(tag: DW_TAG_member, name: "_current_locale", scope: !90, file: !67, line: 581, baseType: !104, size: 32, align: 32, offset: 416)
!104 = !DIDerivedType(tag: DW_TAG_pointer_type, baseType: !105, size: 32, align: 32)
!105 = !DIDerivedType(tag: DW_TAG_const_type, baseType: !99)
!106 = !DIDerivedType(tag: DW_TAG_member, name: "__sdidinit", scope: !90, file: !67, line: 583, baseType: !21, size: 32, align: 32, offset: 448)
!107 = !DIDerivedType(tag: DW_TAG_member, name: "__cleanup", scope: !90, file: !67, line: 585, baseType: !108, size: 32, align: 32, offset: 480)
!108 = !DIDerivedType(tag: DW_TAG_pointer_type, baseType: !109, size: 32, align: 32)
!109 = !DISubroutineType(types: !110)
!110 = !{null, !89}
!111 = !DIDerivedType(tag: DW_TAG_member, name: "_result", scope: !90, file: !67, line: 588, baseType: !112, size: 32, align: 32, offset: 512)
!112 = !DIDerivedType(tag: DW_TAG_pointer_type, baseType: !113, size: 32, align: 32)
!113 = !DICompositeType(tag: DW_TAG_structure_type, name: "_Bigint", file: !67, line: 45, size: 192, align: 32, flags: DIFlagFwdDecl, identifier: "_ZTS7_Bigint")
!114 = !DIDerivedType(tag: DW_TAG_member, name: "_result_k", scope: !90, file: !67, line: 589, baseType: !21, size: 32, align: 32, offset: 544)
!115 = !DIDerivedType(tag: DW_TAG_member, name: "_p5s", scope: !90, file: !67, line: 590, baseType: !112, size: 32, align: 32, offset: 576)
!116 = !DIDerivedType(tag: DW_TAG_member, name: "_freelist", scope: !90, file: !67, line: 591, baseType: !117, size: 32, align: 32, offset: 608)
!117 = !DIDerivedType(tag: DW_TAG_pointer_type, baseType: !112, size: 32, align: 32)
!118 = !DIDerivedType(tag: DW_TAG_member, name: "_cvtlen", scope: !90, file: !67, line: 594, baseType: !21, size: 32, align: 32, offset: 640)
!119 = !DIDerivedType(tag: DW_TAG_member, name: "_cvtbuf", scope: !90, file: !67, line: 595, baseType: !120, size: 32, align: 32, offset: 672)
!120 = !DIDerivedType(tag: DW_TAG_pointer_type, baseType: !99, size: 32, align: 32)
!121 = !DIDerivedType(tag: DW_TAG_member, name: "_new", scope: !90, file: !67, line: 630, baseType: !122, size: 1920, align: 64, offset: 704)
!122 = distinct !DICompositeType(tag: DW_TAG_union_type, scope: !90, file: !67, line: 597, size: 1920, align: 64, elements: !123, identifier: "_ZTSN6_reentUt_E")
!123 = !{!124, !177}
!124 = !DIDerivedType(tag: DW_TAG_member, name: "_reent", scope: !122, file: !67, line: 620, baseType: !125, size: 1664, align: 64)
!125 = distinct !DICompositeType(tag: DW_TAG_structure_type, scope: !122, file: !67, line: 599, size: 1664, align: 64, elements: !126, identifier: "_ZTSN6_reentUt_Ut_E")
!126 = !{!127, !129, !130, !134, !146, !147, !149, !159, !160, !161, !162, !166, !170, !171, !172, !173, !174, !175, !176}
!127 = !DIDerivedType(tag: DW_TAG_member, name: "_unused_rand", scope: !125, file: !67, line: 601, baseType: !128, size: 32, align: 32)
!128 = !DIBasicType(name: "unsigned int", size: 32, align: 32, encoding: DW_ATE_unsigned)
!129 = !DIDerivedType(tag: DW_TAG_member, name: "_strtok_last", scope: !125, file: !67, line: 602, baseType: !120, size: 32, align: 32, offset: 32)
!130 = !DIDerivedType(tag: DW_TAG_member, name: "_asctime_buf", scope: !125, file: !67, line: 603, baseType: !131, size: 208, align: 8, offset: 64)
!131 = !DICompositeType(tag: DW_TAG_array_type, baseType: !99, size: 208, align: 8, elements: !132)
!132 = !{!133}
!133 = !DISubrange(count: 26)
!134 = !DIDerivedType(tag: DW_TAG_member, name: "_localtime_buf", scope: !125, file: !67, line: 604, baseType: !135, size: 288, align: 32, offset: 288)
!135 = distinct !DICompositeType(tag: DW_TAG_structure_type, name: "__tm", file: !67, line: 53, size: 288, align: 32, elements: !136, identifier: "_ZTS4__tm")
!136 = !{!137, !138, !139, !140, !141, !142, !143, !144, !145}
!137 = !DIDerivedType(tag: DW_TAG_member, name: "__tm_sec", scope: !135, file: !67, line: 55, baseType: !21, size: 32, align: 32)
!138 = !DIDerivedType(tag: DW_TAG_member, name: "__tm_min", scope: !135, file: !67, line: 56, baseType: !21, size: 32, align: 32, offset: 32)
!139 = !DIDerivedType(tag: DW_TAG_member, name: "__tm_hour", scope: !135, file: !67, line: 57, baseType: !21, size: 32, align: 32, offset: 64)
!140 = !DIDerivedType(tag: DW_TAG_member, name: "__tm_mday", scope: !135, file: !67, line: 58, baseType: !21, size: 32, align: 32, offset: 96)
!141 = !DIDerivedType(tag: DW_TAG_member, name: "__tm_mon", scope: !135, file: !67, line: 59, baseType: !21, size: 32, align: 32, offset: 128)
!142 = !DIDerivedType(tag: DW_TAG_member, name: "__tm_year", scope: !135, file: !67, line: 60, baseType: !21, size: 32, align: 32, offset: 160)
!143 = !DIDerivedType(tag: DW_TAG_member, name: "__tm_wday", scope: !135, file: !67, line: 61, baseType: !21, size: 32, align: 32, offset: 192)
!144 = !DIDerivedType(tag: DW_TAG_member, name: "__tm_yday", scope: !135, file: !67, line: 62, baseType: !21, size: 32, align: 32, offset: 224)
!145 = !DIDerivedType(tag: DW_TAG_member, name: "__tm_isdst", scope: !135, file: !67, line: 63, baseType: !21, size: 32, align: 32, offset: 256)
!146 = !DIDerivedType(tag: DW_TAG_member, name: "_gamma_signgam", scope: !125, file: !67, line: 605, baseType: !21, size: 32, align: 32, offset: 576)
!147 = !DIDerivedType(tag: DW_TAG_member, name: "_rand_next", scope: !125, file: !67, line: 606, baseType: !148, size: 64, align: 64, offset: 640)
!148 = !DIBasicType(name: "long long unsigned int", size: 64, align: 64, encoding: DW_ATE_unsigned)
!149 = !DIDerivedType(tag: DW_TAG_member, name: "_r48", scope: !125, file: !67, line: 607, baseType: !150, size: 112, align: 16, offset: 704)
!150 = distinct !DICompositeType(tag: DW_TAG_structure_type, name: "_rand48", file: !67, line: 317, size: 112, align: 16, elements: !151, identifier: "_ZTS7_rand48")
!151 = !{!152, !157, !158}
!152 = !DIDerivedType(tag: DW_TAG_member, name: "_seed", scope: !150, file: !67, line: 318, baseType: !153, size: 48, align: 16)
!153 = !DICompositeType(tag: DW_TAG_array_type, baseType: !154, size: 48, align: 16, elements: !155)
!154 = !DIBasicType(name: "unsigned short", size: 16, align: 16, encoding: DW_ATE_unsigned)
!155 = !{!156}
!156 = !DISubrange(count: 3)
!157 = !DIDerivedType(tag: DW_TAG_member, name: "_mult", scope: !150, file: !67, line: 319, baseType: !153, size: 48, align: 16, offset: 48)
!158 = !DIDerivedType(tag: DW_TAG_member, name: "_add", scope: !150, file: !67, line: 320, baseType: !154, size: 16, align: 16, offset: 96)
!159 = !DIDerivedType(tag: DW_TAG_member, name: "_mblen_state", scope: !125, file: !67, line: 608, baseType: !41, size: 64, align: 32, offset: 832)
!160 = !DIDerivedType(tag: DW_TAG_member, name: "_mbtowc_state", scope: !125, file: !67, line: 609, baseType: !41, size: 64, align: 32, offset: 896)
!161 = !DIDerivedType(tag: DW_TAG_member, name: "_wctomb_state", scope: !125, file: !67, line: 610, baseType: !41, size: 64, align: 32, offset: 960)
!162 = !DIDerivedType(tag: DW_TAG_member, name: "_l64a_buf", scope: !125, file: !67, line: 611, baseType: !163, size: 64, align: 8, offset: 1024)
!163 = !DICompositeType(tag: DW_TAG_array_type, baseType: !99, size: 64, align: 8, elements: !164)
!164 = !{!165}
!165 = !DISubrange(count: 8)
!166 = !DIDerivedType(tag: DW_TAG_member, name: "_signal_buf", scope: !125, file: !67, line: 612, baseType: !167, size: 192, align: 8, offset: 1088)
!167 = !DICompositeType(tag: DW_TAG_array_type, baseType: !99, size: 192, align: 8, elements: !168)
!168 = !{!169}
!169 = !DISubrange(count: 24)
!170 = !DIDerivedType(tag: DW_TAG_member, name: "_getdate_err", scope: !125, file: !67, line: 613, baseType: !21, size: 32, align: 32, offset: 1280)
!171 = !DIDerivedType(tag: DW_TAG_member, name: "_mbrlen_state", scope: !125, file: !67, line: 614, baseType: !41, size: 64, align: 32, offset: 1312)
!172 = !DIDerivedType(tag: DW_TAG_member, name: "_mbrtowc_state", scope: !125, file: !67, line: 615, baseType: !41, size: 64, align: 32, offset: 1376)
!173 = !DIDerivedType(tag: DW_TAG_member, name: "_mbsrtowcs_state", scope: !125, file: !67, line: 616, baseType: !41, size: 64, align: 32, offset: 1440)
!174 = !DIDerivedType(tag: DW_TAG_member, name: "_wcrtomb_state", scope: !125, file: !67, line: 617, baseType: !41, size: 64, align: 32, offset: 1504)
!175 = !DIDerivedType(tag: DW_TAG_member, name: "_wcsrtombs_state", scope: !125, file: !67, line: 618, baseType: !41, size: 64, align: 32, offset: 1568)
!176 = !DIDerivedType(tag: DW_TAG_member, name: "_h_errno", scope: !125, file: !67, line: 619, baseType: !21, size: 32, align: 32, offset: 1632)
!177 = !DIDerivedType(tag: DW_TAG_member, name: "_unused", scope: !122, file: !67, line: 629, baseType: !178, size: 1920, align: 32)
!178 = distinct !DICompositeType(tag: DW_TAG_structure_type, scope: !122, file: !67, line: 624, size: 1920, align: 32, elements: !179, identifier: "_ZTSN6_reentUt_Ut0_E")
!179 = !{!180, !184}
!180 = !DIDerivedType(tag: DW_TAG_member, name: "_nextf", scope: !178, file: !67, line: 627, baseType: !181, size: 960, align: 32)
!181 = !DICompositeType(tag: DW_TAG_array_type, baseType: !71, size: 960, align: 32, elements: !182)
!182 = !{!183}
!183 = !DISubrange(count: 30)
!184 = !DIDerivedType(tag: DW_TAG_member, name: "_nmalloc", scope: !178, file: !67, line: 628, baseType: !185, size: 960, align: 32, offset: 960)
!185 = !DICompositeType(tag: DW_TAG_array_type, baseType: !128, size: 960, align: 32, elements: !182)
!186 = !DIDerivedType(tag: DW_TAG_member, name: "_atexit", scope: !90, file: !67, line: 634, baseType: !187, size: 32, align: 32, offset: 2624)
!187 = !DIDerivedType(tag: DW_TAG_pointer_type, baseType: !188, size: 32, align: 32)
!188 = distinct !DICompositeType(tag: DW_TAG_structure_type, name: "_atexit", file: !67, line: 91, size: 3200, align: 32, elements: !189, identifier: "_ZTS7_atexit")
!189 = !{!190, !191, !192, !199}
!190 = !DIDerivedType(tag: DW_TAG_member, name: "_next", scope: !188, file: !67, line: 92, baseType: !187, size: 32, align: 32)
!191 = !DIDerivedType(tag: DW_TAG_member, name: "_ind", scope: !188, file: !67, line: 93, baseType: !21, size: 32, align: 32, offset: 32)
!192 = !DIDerivedType(tag: DW_TAG_member, name: "_fns", scope: !188, file: !67, line: 95, baseType: !193, size: 1024, align: 32, offset: 64)
!193 = !DICompositeType(tag: DW_TAG_array_type, baseType: !194, size: 1024, align: 32, elements: !197)
!194 = !DIDerivedType(tag: DW_TAG_pointer_type, baseType: !195, size: 32, align: 32)
!195 = !DISubroutineType(types: !196)
!196 = !{null}
!197 = !{!198}
!198 = !DISubrange(count: 32)
!199 = !DIDerivedType(tag: DW_TAG_member, name: "_on_exit_args", scope: !188, file: !67, line: 96, baseType: !200, size: 2112, align: 32, offset: 1088)
!200 = distinct !DICompositeType(tag: DW_TAG_structure_type, name: "_on_exit_args", file: !67, line: 72, size: 2112, align: 32, elements: !201, identifier: "_ZTS13_on_exit_args")
!201 = !{!202, !204, !205, !208}
!202 = !DIDerivedType(tag: DW_TAG_member, name: "_fnargs", scope: !200, file: !67, line: 73, baseType: !203, size: 1024, align: 32)
!203 = !DICompositeType(tag: DW_TAG_array_type, baseType: !84, size: 1024, align: 32, elements: !197)
!204 = !DIDerivedType(tag: DW_TAG_member, name: "_dso_handle", scope: !200, file: !67, line: 74, baseType: !203, size: 1024, align: 32, offset: 1024)
!205 = !DIDerivedType(tag: DW_TAG_member, name: "_fntypes", scope: !200, file: !67, line: 76, baseType: !206, size: 32, align: 32, offset: 2048)
!206 = !DIDerivedType(tag: DW_TAG_typedef, name: "__ULong", file: !67, line: 22, baseType: !207)
!207 = !DIBasicType(name: "long unsigned int", size: 32, align: 32, encoding: DW_ATE_unsigned)
!208 = !DIDerivedType(tag: DW_TAG_member, name: "_is_cxa", scope: !200, file: !67, line: 79, baseType: !206, size: 32, align: 32, offset: 2080)
!209 = !DIDerivedType(tag: DW_TAG_member, name: "_atexit0", scope: !90, file: !67, line: 635, baseType: !188, size: 3200, align: 32, offset: 2656)
!210 = !DIDerivedType(tag: DW_TAG_member, name: "_sig_func", scope: !90, file: !67, line: 639, baseType: !211, size: 32, align: 32, offset: 5856)
!211 = !DIDerivedType(tag: DW_TAG_pointer_type, baseType: !212, size: 32, align: 32)
!212 = !DIDerivedType(tag: DW_TAG_pointer_type, baseType: !213, size: 32, align: 32)
!213 = !DISubroutineType(types: !214)
!214 = !{null, !21}
!215 = !DIDerivedType(tag: DW_TAG_member, name: "__sglue", scope: !90, file: !67, line: 644, baseType: !216, size: 96, align: 32, offset: 5888)
!216 = distinct !DICompositeType(tag: DW_TAG_structure_type, name: "_glue", file: !67, line: 289, size: 96, align: 32, elements: !217, identifier: "_ZTS5_glue")
!217 = !{!218, !220, !221}
!218 = !DIDerivedType(tag: DW_TAG_member, name: "_next", scope: !216, file: !67, line: 291, baseType: !219, size: 32, align: 32)
!219 = !DIDerivedType(tag: DW_TAG_pointer_type, baseType: !216, size: 32, align: 32)
!220 = !DIDerivedType(tag: DW_TAG_member, name: "_niobs", scope: !216, file: !67, line: 292, baseType: !21, size: 32, align: 32, offset: 32)
!221 = !DIDerivedType(tag: DW_TAG_member, name: "_iobs", scope: !216, file: !67, line: 293, baseType: !65, size: 32, align: 32, offset: 64)
!222 = !DIDerivedType(tag: DW_TAG_member, name: "__sf", scope: !90, file: !67, line: 645, baseType: !223, size: 2496, align: 32, offset: 5984)
!223 = !DICompositeType(tag: DW_TAG_array_type, baseType: !66, size: 2496, align: 32, elements: !155)
!224 = !DIDerivedType(tag: DW_TAG_member, name: "_write", scope: !68, file: !67, line: 197, baseType: !225, size: 32, align: 32, offset: 288)
!225 = !DIDerivedType(tag: DW_TAG_pointer_type, baseType: !226, size: 32, align: 32)
!226 = !DISubroutineType(types: !227)
!227 = !{!21, !89, !84, !104, !21}
!228 = !DIDerivedType(tag: DW_TAG_member, name: "_seek", scope: !68, file: !67, line: 200, baseType: !229, size: 32, align: 32, offset: 320)
!229 = !DIDerivedType(tag: DW_TAG_pointer_type, baseType: !230, size: 32, align: 32)
!230 = !DISubroutineType(types: !231)
!231 = !{!232, !89, !84, !232, !21}
!232 = !DIDerivedType(tag: DW_TAG_typedef, name: "_fpos_t", file: !42, line: 39, baseType: !233)
!233 = !DIBasicType(name: "long int", size: 32, align: 32, encoding: DW_ATE_signed)
!234 = !DIDerivedType(tag: DW_TAG_member, name: "_close", scope: !68, file: !67, line: 201, baseType: !235, size: 32, align: 32, offset: 352)
!235 = !DIDerivedType(tag: DW_TAG_pointer_type, baseType: !236, size: 32, align: 32)
!236 = !DISubroutineType(types: !237)
!237 = !{!21, !89, !84}
!238 = !DIDerivedType(tag: DW_TAG_member, name: "_ub", scope: !68, file: !67, line: 204, baseType: !78, size: 64, align: 32, offset: 384)
!239 = !DIDerivedType(tag: DW_TAG_member, name: "_up", scope: !68, file: !67, line: 205, baseType: !71, size: 32, align: 32, offset: 448)
!240 = !DIDerivedType(tag: DW_TAG_member, name: "_ur", scope: !68, file: !67, line: 206, baseType: !21, size: 32, align: 32, offset: 480)
!241 = !DIDerivedType(tag: DW_TAG_member, name: "_ubuf", scope: !68, file: !67, line: 209, baseType: !242, size: 24, align: 8, offset: 512)
!242 = !DICompositeType(tag: DW_TAG_array_type, baseType: !53, size: 24, align: 8, elements: !155)
!243 = !DIDerivedType(tag: DW_TAG_member, name: "_nbuf", scope: !68, file: !67, line: 210, baseType: !244, size: 8, align: 8, offset: 536)
!244 = !DICompositeType(tag: DW_TAG_array_type, baseType: !53, size: 8, align: 8, elements: !245)
!245 = !{!246}
!246 = !DISubrange(count: 1)
!247 = !DIDerivedType(tag: DW_TAG_member, name: "_lb", scope: !68, file: !67, line: 213, baseType: !78, size: 64, align: 32, offset: 544)
!248 = !DIDerivedType(tag: DW_TAG_member, name: "_blksize", scope: !68, file: !67, line: 216, baseType: !21, size: 32, align: 32, offset: 608)
!249 = !DIDerivedType(tag: DW_TAG_member, name: "_offset", scope: !68, file: !67, line: 217, baseType: !250, size: 32, align: 32, offset: 640)
!250 = !DIDerivedType(tag: DW_TAG_typedef, name: "_off_t", file: !42, line: 16, baseType: !233)
!251 = !DIDerivedType(tag: DW_TAG_member, name: "_data", scope: !68, file: !67, line: 220, baseType: !89, size: 32, align: 32, offset: 672)
!252 = !DIDerivedType(tag: DW_TAG_member, name: "_lock", scope: !68, file: !67, line: 224, baseType: !253, size: 32, align: 32, offset: 704)
!253 = !DIDerivedType(tag: DW_TAG_typedef, name: "_flock_t", file: !42, line: 83, baseType: !254)
!254 = !DIDerivedType(tag: DW_TAG_typedef, name: "_LOCK_RECURSIVE_T", file: !255, line: 7, baseType: !21)
!255 = !DIFile(filename: "/mnt/icgridio2/safe/SDSoC/SDx/2017.1/SDK/gnu/aarch32/lin/gcc-arm-none-eabi/arm-none-eabi/libc/usr/include/sys/lock.h", directory: "/scratch/local/tmp.yK7okjyWNi")
!256 = !DIDerivedType(tag: DW_TAG_member, name: "_mbstate", scope: !68, file: !67, line: 226, baseType: !41, size: 64, align: 32, offset: 736)
!257 = !DIDerivedType(tag: DW_TAG_member, name: "_flags2", scope: !68, file: !67, line: 227, baseType: !21, size: 32, align: 32, offset: 800)
!258 = !DIImportedEntity(tag: DW_TAG_imported_declaration, scope: !8, entity: !259, line: 143)
!259 = !DISubprogram(name: "fgetws", scope: !40, file: !40, line: 152, type: !260, isLocal: false, isDefinition: false, flags: DIFlagPrototyped, isOptimized: false)
!260 = !DISubroutineType(types: !261)
!261 = !{!262, !262, !21, !65}
!262 = !DIDerivedType(tag: DW_TAG_pointer_type, baseType: !263, size: 32, align: 32)
!263 = !DIBasicType(name: "wchar_t", size: 32, align: 32, encoding: DW_ATE_unsigned)
!264 = !DIImportedEntity(tag: DW_TAG_imported_declaration, scope: !8, entity: !265, line: 144)
!265 = !DISubprogram(name: "fputwc", scope: !40, file: !40, line: 153, type: !266, isLocal: false, isDefinition: false, flags: DIFlagPrototyped, isOptimized: false)
!266 = !DISubroutineType(types: !267)
!267 = !{!50, !263, !65}
!268 = !DIImportedEntity(tag: DW_TAG_imported_declaration, scope: !8, entity: !269, line: 145)
!269 = !DISubprogram(name: "fputws", scope: !40, file: !40, line: 154, type: !270, isLocal: false, isDefinition: false, flags: DIFlagPrototyped, isOptimized: false)
!270 = !DISubroutineType(types: !271)
!271 = !{!21, !272, !65}
!272 = !DIDerivedType(tag: DW_TAG_pointer_type, baseType: !273, size: 32, align: 32)
!273 = !DIDerivedType(tag: DW_TAG_const_type, baseType: !263)
!274 = !DIImportedEntity(tag: DW_TAG_imported_declaration, scope: !8, entity: !275, line: 146)
!275 = !DISubprogram(name: "fwide", scope: !40, file: !40, line: 155, type: !276, isLocal: false, isDefinition: false, flags: DIFlagPrototyped, isOptimized: false)
!276 = !DISubroutineType(types: !277)
!277 = !{!21, !65, !21}
!278 = !DIImportedEntity(tag: DW_TAG_imported_declaration, scope: !8, entity: !279, line: 147)
!279 = !DISubprogram(name: "fwprintf", scope: !40, file: !40, line: 205, type: !280, isLocal: false, isDefinition: false, flags: DIFlagPrototyped, isOptimized: false)
!280 = !DISubroutineType(types: !281)
!281 = !{!21, !65, !272, null}
!282 = !DIImportedEntity(tag: DW_TAG_imported_declaration, scope: !8, entity: !283, line: 148)
!283 = !DISubprogram(name: "fwscanf", scope: !40, file: !40, line: 222, type: !280, isLocal: false, isDefinition: false, flags: DIFlagPrototyped, isOptimized: false)
!284 = !DIImportedEntity(tag: DW_TAG_imported_declaration, scope: !8, entity: !285, line: 149)
!285 = !DISubprogram(name: "getwc", scope: !40, file: !40, line: 156, type: !63, isLocal: false, isDefinition: false, flags: DIFlagPrototyped, isOptimized: false)
!286 = !DIImportedEntity(tag: DW_TAG_imported_declaration, scope: !8, entity: !287, line: 150)
!287 = !DISubprogram(name: "getwchar", scope: !40, file: !40, line: 157, type: !288, isLocal: false, isDefinition: false, flags: DIFlagPrototyped, isOptimized: false)
!288 = !DISubroutineType(types: !289)
!289 = !{!50}
!290 = !DIImportedEntity(tag: DW_TAG_imported_declaration, scope: !8, entity: !291, line: 151)
!291 = !DISubprogram(name: "mbrlen", scope: !40, file: !40, line: 68, type: !292, isLocal: false, isDefinition: false, flags: DIFlagPrototyped, isOptimized: false)
!292 = !DISubroutineType(types: !293)
!293 = !{!294, !104, !294, !295}
!294 = !DIDerivedType(tag: DW_TAG_typedef, name: "size_t", file: !32, line: 216, baseType: !128)
!295 = !DIDerivedType(tag: DW_TAG_pointer_type, baseType: !39, size: 32, align: 32)
!296 = !DIImportedEntity(tag: DW_TAG_imported_declaration, scope: !8, entity: !297, line: 152)
!297 = !DISubprogram(name: "mbrtowc", scope: !40, file: !40, line: 69, type: !298, isLocal: false, isDefinition: false, flags: DIFlagPrototyped, isOptimized: false)
!298 = !DISubroutineType(types: !299)
!299 = !{!294, !262, !104, !294, !295}
!300 = !DIImportedEntity(tag: DW_TAG_imported_declaration, scope: !8, entity: !301, line: 153)
!301 = !DISubprogram(name: "mbsinit", scope: !40, file: !40, line: 73, type: !302, isLocal: false, isDefinition: false, flags: DIFlagPrototyped, isOptimized: false)
!302 = !DISubroutineType(types: !303)
!303 = !{!21, !304}
!304 = !DIDerivedType(tag: DW_TAG_pointer_type, baseType: !305, size: 32, align: 32)
!305 = !DIDerivedType(tag: DW_TAG_const_type, baseType: !39)
!306 = !DIImportedEntity(tag: DW_TAG_imported_declaration, scope: !8, entity: !307, line: 154)
!307 = !DISubprogram(name: "mbsrtowcs", scope: !40, file: !40, line: 78, type: !308, isLocal: false, isDefinition: false, flags: DIFlagPrototyped, isOptimized: false)
!308 = !DISubroutineType(types: !309)
!309 = !{!294, !262, !310, !294, !295}
!310 = !DIDerivedType(tag: DW_TAG_pointer_type, baseType: !104, size: 32, align: 32)
!311 = !DIImportedEntity(tag: DW_TAG_imported_declaration, scope: !8, entity: !312, line: 155)
!312 = !DISubprogram(name: "putwc", scope: !40, file: !40, line: 158, type: !266, isLocal: false, isDefinition: false, flags: DIFlagPrototyped, isOptimized: false)
!313 = !DIImportedEntity(tag: DW_TAG_imported_declaration, scope: !8, entity: !314, line: 156)
!314 = !DISubprogram(name: "putwchar", scope: !40, file: !40, line: 159, type: !315, isLocal: false, isDefinition: false, flags: DIFlagPrototyped, isOptimized: false)
!315 = !DISubroutineType(types: !316)
!316 = !{!50, !263}
!317 = !DIImportedEntity(tag: DW_TAG_imported_declaration, scope: !8, entity: !318, line: 158)
!318 = !DISubprogram(name: "swprintf", scope: !40, file: !40, line: 206, type: !319, isLocal: false, isDefinition: false, flags: DIFlagPrototyped, isOptimized: false)
!319 = !DISubroutineType(types: !320)
!320 = !{!21, !262, !294, !272, null}
!321 = !DIImportedEntity(tag: DW_TAG_imported_declaration, scope: !8, entity: !322, line: 160)
!322 = !DISubprogram(name: "swscanf", scope: !40, file: !40, line: 223, type: !323, isLocal: false, isDefinition: false, flags: DIFlagPrototyped, isOptimized: false)
!323 = !DISubroutineType(types: !324)
!324 = !{!21, !272, !272, null}
!325 = !DIImportedEntity(tag: DW_TAG_imported_declaration, scope: !8, entity: !326, line: 161)
!326 = !DISubprogram(name: "ungetwc", scope: !40, file: !40, line: 160, type: !327, isLocal: false, isDefinition: false, flags: DIFlagPrototyped, isOptimized: false)
!327 = !DISubroutineType(types: !328)
!328 = !{!50, !50, !65}
!329 = !DIImportedEntity(tag: DW_TAG_imported_declaration, scope: !8, entity: !330, line: 162)
!330 = !DISubprogram(name: "vfwprintf", scope: !40, file: !40, line: 208, type: !331, isLocal: false, isDefinition: false, flags: DIFlagPrototyped, isOptimized: false)
!331 = !DISubroutineType(types: !332)
!332 = !{!21, !65, !272, !333}
!333 = !DIDerivedType(tag: DW_TAG_typedef, name: "__gnuc_va_list", file: !334, line: 40, baseType: !335)
!334 = !DIFile(filename: "/mnt/icgridio2/safe/SDSoC/SDx/2017.1/SDK/gnu/aarch32/lin/gcc-arm-none-eabi/lib/gcc/arm-none-eabi/6.2.1/include/stdarg.h", directory: "/scratch/local/tmp.yK7okjyWNi")
!335 = !DIDerivedType(tag: DW_TAG_typedef, name: "__builtin_va_list", file: !1, baseType: !336)
!336 = distinct !DICompositeType(tag: DW_TAG_structure_type, name: "__va_list", scope: !337, file: !1, size: 32, align: 32, elements: !338, identifier: "_ZTSSt9__va_list")
!337 = !DINamespace(name: "std", scope: null, file: !1)
!338 = !{!339}
!339 = !DIDerivedType(tag: DW_TAG_member, name: "__ap", scope: !336, file: !1, baseType: !84, size: 32, align: 32)
!340 = !DIImportedEntity(tag: DW_TAG_imported_declaration, scope: !8, entity: !341, line: 164)
!341 = !DISubprogram(name: "vfwscanf", scope: !40, file: !40, line: 225, type: !331, isLocal: false, isDefinition: false, flags: DIFlagPrototyped, isOptimized: false)
!342 = !DIImportedEntity(tag: DW_TAG_imported_declaration, scope: !8, entity: !343, line: 167)
!343 = !DISubprogram(name: "vswprintf", scope: !40, file: !40, line: 210, type: !344, isLocal: false, isDefinition: false, flags: DIFlagPrototyped, isOptimized: false)
!344 = !DISubroutineType(types: !345)
!345 = !{!21, !262, !294, !272, !333}
!346 = !DIImportedEntity(tag: DW_TAG_imported_declaration, scope: !8, entity: !347, line: 170)
!347 = !DISubprogram(name: "vswscanf", scope: !40, file: !40, line: 227, type: !348, isLocal: false, isDefinition: false, flags: DIFlagPrototyped, isOptimized: false)
!348 = !DISubroutineType(types: !349)
!349 = !{!21, !272, !272, !333}
!350 = !DIImportedEntity(tag: DW_TAG_imported_declaration, scope: !8, entity: !351, line: 172)
!351 = !DISubprogram(name: "vwprintf", scope: !40, file: !40, line: 212, type: !352, isLocal: false, isDefinition: false, flags: DIFlagPrototyped, isOptimized: false)
!352 = !DISubroutineType(types: !353)
!353 = !{!21, !272, !333}
!354 = !DIImportedEntity(tag: DW_TAG_imported_declaration, scope: !8, entity: !355, line: 174)
!355 = !DISubprogram(name: "vwscanf", scope: !40, file: !40, line: 229, type: !352, isLocal: false, isDefinition: false, flags: DIFlagPrototyped, isOptimized: false)
!356 = !DIImportedEntity(tag: DW_TAG_imported_declaration, scope: !8, entity: !357, line: 176)
!357 = !DISubprogram(name: "wcrtomb", scope: !40, file: !40, line: 81, type: !358, isLocal: false, isDefinition: false, flags: DIFlagPrototyped, isOptimized: false)
!358 = !DISubroutineType(types: !359)
!359 = !{!294, !120, !263, !295}
!360 = !DIImportedEntity(tag: DW_TAG_imported_declaration, scope: !8, entity: !361, line: 177)
!361 = !DISubprogram(name: "wcscat", scope: !40, file: !40, line: 92, type: !362, isLocal: false, isDefinition: false, flags: DIFlagPrototyped, isOptimized: false)
!362 = !DISubroutineType(types: !363)
!363 = !{!262, !262, !272}
!364 = !DIImportedEntity(tag: DW_TAG_imported_declaration, scope: !8, entity: !365, line: 178)
!365 = !DISubprogram(name: "wcscmp", scope: !40, file: !40, line: 94, type: !366, isLocal: false, isDefinition: false, flags: DIFlagPrototyped, isOptimized: false)
!366 = !DISubroutineType(types: !367)
!367 = !{!21, !272, !272}
!368 = !DIImportedEntity(tag: DW_TAG_imported_declaration, scope: !8, entity: !369, line: 179)
!369 = !DISubprogram(name: "wcscoll", scope: !40, file: !40, line: 95, type: !366, isLocal: false, isDefinition: false, flags: DIFlagPrototyped, isOptimized: false)
!370 = !DIImportedEntity(tag: DW_TAG_imported_declaration, scope: !8, entity: !371, line: 180)
!371 = !DISubprogram(name: "wcscpy", scope: !40, file: !40, line: 96, type: !362, isLocal: false, isDefinition: false, flags: DIFlagPrototyped, isOptimized: false)
!372 = !DIImportedEntity(tag: DW_TAG_imported_declaration, scope: !8, entity: !373, line: 181)
!373 = !DISubprogram(name: "wcscspn", scope: !40, file: !40, line: 101, type: !374, isLocal: false, isDefinition: false, flags: DIFlagPrototyped, isOptimized: false)
!374 = !DISubroutineType(types: !375)
!375 = !{!294, !272, !272}
!376 = !DIImportedEntity(tag: DW_TAG_imported_declaration, scope: !8, entity: !377, line: 182)
!377 = !DISubprogram(name: "wcsftime", scope: !40, file: !40, line: 102, type: !378, isLocal: false, isDefinition: false, flags: DIFlagPrototyped, isOptimized: false)
!378 = !DISubroutineType(types: !379)
!379 = !{!294, !262, !294, !272, !380}
!380 = !DIDerivedType(tag: DW_TAG_pointer_type, baseType: !381, size: 32, align: 32)
!381 = !DIDerivedType(tag: DW_TAG_const_type, baseType: !382)
!382 = distinct !DICompositeType(tag: DW_TAG_structure_type, name: "tm", file: !383, line: 33, size: 288, align: 32, elements: !384, identifier: "_ZTS2tm")
!383 = !DIFile(filename: "/mnt/icgridio2/safe/SDSoC/SDx/2017.1/SDK/gnu/aarch32/lin/gcc-arm-none-eabi/arm-none-eabi/libc/usr/include/time.h", directory: "/scratch/local/tmp.yK7okjyWNi")
!384 = !{!385, !386, !387, !388, !389, !390, !391, !392, !393}
!385 = !DIDerivedType(tag: DW_TAG_member, name: "tm_sec", scope: !382, file: !383, line: 35, baseType: !21, size: 32, align: 32)
!386 = !DIDerivedType(tag: DW_TAG_member, name: "tm_min", scope: !382, file: !383, line: 36, baseType: !21, size: 32, align: 32, offset: 32)
!387 = !DIDerivedType(tag: DW_TAG_member, name: "tm_hour", scope: !382, file: !383, line: 37, baseType: !21, size: 32, align: 32, offset: 64)
!388 = !DIDerivedType(tag: DW_TAG_member, name: "tm_mday", scope: !382, file: !383, line: 38, baseType: !21, size: 32, align: 32, offset: 96)
!389 = !DIDerivedType(tag: DW_TAG_member, name: "tm_mon", scope: !382, file: !383, line: 39, baseType: !21, size: 32, align: 32, offset: 128)
!390 = !DIDerivedType(tag: DW_TAG_member, name: "tm_year", scope: !382, file: !383, line: 40, baseType: !21, size: 32, align: 32, offset: 160)
!391 = !DIDerivedType(tag: DW_TAG_member, name: "tm_wday", scope: !382, file: !383, line: 41, baseType: !21, size: 32, align: 32, offset: 192)
!392 = !DIDerivedType(tag: DW_TAG_member, name: "tm_yday", scope: !382, file: !383, line: 42, baseType: !21, size: 32, align: 32, offset: 224)
!393 = !DIDerivedType(tag: DW_TAG_member, name: "tm_isdst", scope: !382, file: !383, line: 43, baseType: !21, size: 32, align: 32, offset: 256)
!394 = !DIImportedEntity(tag: DW_TAG_imported_declaration, scope: !8, entity: !395, line: 183)
!395 = !DISubprogram(name: "wcslen", scope: !40, file: !40, line: 106, type: !396, isLocal: false, isDefinition: false, flags: DIFlagPrototyped, isOptimized: false)
!396 = !DISubroutineType(types: !397)
!397 = !{!294, !272}
!398 = !DIImportedEntity(tag: DW_TAG_imported_declaration, scope: !8, entity: !399, line: 184)
!399 = !DISubprogram(name: "wcsncat", scope: !40, file: !40, line: 108, type: !400, isLocal: false, isDefinition: false, flags: DIFlagPrototyped, isOptimized: false)
!400 = !DISubroutineType(types: !401)
!401 = !{!262, !262, !272, !294}
!402 = !DIImportedEntity(tag: DW_TAG_imported_declaration, scope: !8, entity: !403, line: 185)
!403 = !DISubprogram(name: "wcsncmp", scope: !40, file: !40, line: 110, type: !404, isLocal: false, isDefinition: false, flags: DIFlagPrototyped, isOptimized: false)
!404 = !DISubroutineType(types: !405)
!405 = !{!21, !272, !272, !294}
!406 = !DIImportedEntity(tag: DW_TAG_imported_declaration, scope: !8, entity: !407, line: 186)
!407 = !DISubprogram(name: "wcsncpy", scope: !40, file: !40, line: 111, type: !400, isLocal: false, isDefinition: false, flags: DIFlagPrototyped, isOptimized: false)
!408 = !DIImportedEntity(tag: DW_TAG_imported_declaration, scope: !8, entity: !409, line: 187)
!409 = !DISubprogram(name: "wcsrtombs", scope: !40, file: !40, line: 87, type: !410, isLocal: false, isDefinition: false, flags: DIFlagPrototyped, isOptimized: false)
!410 = !DISubroutineType(types: !411)
!411 = !{!294, !120, !412, !294, !295}
!412 = !DIDerivedType(tag: DW_TAG_pointer_type, baseType: !272, size: 32, align: 32)
!413 = !DIImportedEntity(tag: DW_TAG_imported_declaration, scope: !8, entity: !414, line: 188)
!414 = !DISubprogram(name: "wcsspn", scope: !40, file: !40, line: 118, type: !374, isLocal: false, isDefinition: false, flags: DIFlagPrototyped, isOptimized: false)
!415 = !DIImportedEntity(tag: DW_TAG_imported_declaration, scope: !8, entity: !416, line: 189)
!416 = !DISubprogram(name: "wcstod", scope: !40, file: !40, line: 123, type: !417, isLocal: false, isDefinition: false, flags: DIFlagPrototyped, isOptimized: false)
!417 = !DISubroutineType(types: !418)
!418 = !{!419, !272, !420}
!419 = !DIBasicType(name: "double", size: 64, align: 64, encoding: DW_ATE_float)
!420 = !DIDerivedType(tag: DW_TAG_pointer_type, baseType: !262, size: 32, align: 32)
!421 = !DIImportedEntity(tag: DW_TAG_imported_declaration, scope: !8, entity: !422, line: 191)
!422 = !DISubprogram(name: "wcstof", scope: !40, file: !40, line: 125, type: !423, isLocal: false, isDefinition: false, flags: DIFlagPrototyped, isOptimized: false)
!423 = !DISubroutineType(types: !424)
!424 = !{!425, !272, !420}
!425 = !DIBasicType(name: "float", size: 32, align: 32, encoding: DW_ATE_float)
!426 = !DIImportedEntity(tag: DW_TAG_imported_declaration, scope: !8, entity: !427, line: 193)
!427 = !DISubprogram(name: "wcstok", scope: !40, file: !40, line: 121, type: !428, isLocal: false, isDefinition: false, flags: DIFlagPrototyped, isOptimized: false)
!428 = !DISubroutineType(types: !429)
!429 = !{!262, !262, !272, !420}
!430 = !DIImportedEntity(tag: DW_TAG_imported_declaration, scope: !8, entity: !431, line: 194)
!431 = !DISubprogram(name: "wcstol", scope: !40, file: !40, line: 138, type: !432, isLocal: false, isDefinition: false, flags: DIFlagPrototyped, isOptimized: false)
!432 = !DISubroutineType(types: !433)
!433 = !{!233, !272, !420, !21}
!434 = !DIImportedEntity(tag: DW_TAG_imported_declaration, scope: !8, entity: !435, line: 195)
!435 = !DISubprogram(name: "wcstoul", scope: !40, file: !40, line: 141, type: !436, isLocal: false, isDefinition: false, flags: DIFlagPrototyped, isOptimized: false)
!436 = !DISubroutineType(types: !437)
!437 = !{!207, !272, !420, !21}
!438 = !DIImportedEntity(tag: DW_TAG_imported_declaration, scope: !8, entity: !439, line: 196)
!439 = !DISubprogram(name: "wcsxfrm", scope: !40, file: !40, line: 128, type: !440, isLocal: false, isDefinition: false, flags: DIFlagPrototyped, isOptimized: false)
!440 = !DISubroutineType(types: !441)
!441 = !{!294, !262, !272, !294}
!442 = !DIImportedEntity(tag: DW_TAG_imported_declaration, scope: !8, entity: !443, line: 197)
!443 = !DISubprogram(name: "wctob", scope: !40, file: !40, line: 67, type: !444, isLocal: false, isDefinition: false, flags: DIFlagPrototyped, isOptimized: false)
!444 = !DISubroutineType(types: !445)
!445 = !{!21, !50}
!446 = !DIImportedEntity(tag: DW_TAG_imported_declaration, scope: !8, entity: !447, line: 198)
!447 = !DISubprogram(name: "wmemcmp", scope: !40, file: !40, line: 132, type: !404, isLocal: false, isDefinition: false, flags: DIFlagPrototyped, isOptimized: false)
!448 = !DIImportedEntity(tag: DW_TAG_imported_declaration, scope: !8, entity: !449, line: 199)
!449 = !DISubprogram(name: "wmemcpy", scope: !40, file: !40, line: 133, type: !400, isLocal: false, isDefinition: false, flags: DIFlagPrototyped, isOptimized: false)
!450 = !DIImportedEntity(tag: DW_TAG_imported_declaration, scope: !8, entity: !451, line: 200)
!451 = !DISubprogram(name: "wmemmove", scope: !40, file: !40, line: 135, type: !400, isLocal: false, isDefinition: false, flags: DIFlagPrototyped, isOptimized: false)
!452 = !DIImportedEntity(tag: DW_TAG_imported_declaration, scope: !8, entity: !453, line: 201)
!453 = !DISubprogram(name: "wmemset", scope: !40, file: !40, line: 136, type: !454, isLocal: false, isDefinition: false, flags: DIFlagPrototyped, isOptimized: false)
!454 = !DISubroutineType(types: !455)
!455 = !{!262, !262, !263, !294}
!456 = !DIImportedEntity(tag: DW_TAG_imported_declaration, scope: !8, entity: !457, line: 202)
!457 = !DISubprogram(name: "wprintf", scope: !40, file: !40, line: 213, type: !458, isLocal: false, isDefinition: false, flags: DIFlagPrototyped, isOptimized: false)
!458 = !DISubroutineType(types: !459)
!459 = !{!21, !272, null}
!460 = !DIImportedEntity(tag: DW_TAG_imported_declaration, scope: !8, entity: !461, line: 203)
!461 = !DISubprogram(name: "wscanf", scope: !40, file: !40, line: 230, type: !458, isLocal: false, isDefinition: false, flags: DIFlagPrototyped, isOptimized: false)
!462 = !DIImportedEntity(tag: DW_TAG_imported_declaration, scope: !8, entity: !463, line: 204)
!463 = !DISubprogram(name: "wcschr", scope: !40, file: !40, line: 93, type: !464, isLocal: false, isDefinition: false, flags: DIFlagPrototyped, isOptimized: false)
!464 = !DISubroutineType(types: !465)
!465 = !{!262, !272, !263}
!466 = !DIImportedEntity(tag: DW_TAG_imported_declaration, scope: !8, entity: !467, line: 205)
!467 = !DISubprogram(name: "wcspbrk", scope: !40, file: !40, line: 116, type: !468, isLocal: false, isDefinition: false, flags: DIFlagPrototyped, isOptimized: false)
!468 = !DISubroutineType(types: !469)
!469 = !{!262, !272, !272}
!470 = !DIImportedEntity(tag: DW_TAG_imported_declaration, scope: !8, entity: !471, line: 206)
!471 = !DISubprogram(name: "wcsrchr", scope: !40, file: !40, line: 117, type: !464, isLocal: false, isDefinition: false, flags: DIFlagPrototyped, isOptimized: false)
!472 = !DIImportedEntity(tag: DW_TAG_imported_declaration, scope: !8, entity: !473, line: 207)
!473 = !DISubprogram(name: "wcsstr", scope: !40, file: !40, line: 119, type: !468, isLocal: false, isDefinition: false, flags: DIFlagPrototyped, isOptimized: false)
!474 = !DIImportedEntity(tag: DW_TAG_imported_declaration, scope: !8, entity: !475, line: 208)
!475 = !DISubprogram(name: "wmemchr", scope: !40, file: !40, line: 131, type: !476, isLocal: false, isDefinition: false, flags: DIFlagPrototyped, isOptimized: false)
!476 = !DISubroutineType(types: !477)
!477 = !{!262, !272, !263, !294}
!478 = !DIImportedEntity(tag: DW_TAG_imported_declaration, scope: !479, entity: !480, line: 248)
!479 = !DINamespace(name: "__gnu_cxx", scope: null, file: !7, line: 225)
!480 = !DISubprogram(name: "wcstold", scope: !40, file: !40, line: 149, type: !481, isLocal: false, isDefinition: false, flags: DIFlagPrototyped, isOptimized: false)
!481 = !DISubroutineType(types: !482)
!482 = !{!483, !272, !420}
!483 = !DIBasicType(name: "long double", size: 64, align: 64, encoding: DW_ATE_float)
!484 = !DIImportedEntity(tag: DW_TAG_imported_declaration, scope: !479, entity: !485, line: 257)
!485 = !DISubprogram(name: "wcstoll", scope: !40, file: !40, line: 139, type: !486, isLocal: false, isDefinition: false, flags: DIFlagPrototyped, isOptimized: false)
!486 = !DISubroutineType(types: !487)
!487 = !{!488, !272, !420, !21}
!488 = !DIBasicType(name: "long long int", size: 64, align: 64, encoding: DW_ATE_signed)
!489 = !DIImportedEntity(tag: DW_TAG_imported_declaration, scope: !479, entity: !490, line: 258)
!490 = !DISubprogram(name: "wcstoull", scope: !40, file: !40, line: 143, type: !491, isLocal: false, isDefinition: false, flags: DIFlagPrototyped, isOptimized: false)
!491 = !DISubroutineType(types: !492)
!492 = !{!148, !272, !420, !21}
!493 = !DIImportedEntity(tag: DW_TAG_imported_declaration, scope: !8, entity: !480, line: 264)
!494 = !DIImportedEntity(tag: DW_TAG_imported_declaration, scope: !8, entity: !485, line: 265)
!495 = !DIImportedEntity(tag: DW_TAG_imported_declaration, scope: !8, entity: !490, line: 266)
!496 = !DIImportedEntity(tag: DW_TAG_imported_declaration, scope: !8, entity: !422, line: 280)
!497 = !DIImportedEntity(tag: DW_TAG_imported_declaration, scope: !8, entity: !341, line: 283)
!498 = !DIImportedEntity(tag: DW_TAG_imported_declaration, scope: !8, entity: !347, line: 286)
!499 = !DIImportedEntity(tag: DW_TAG_imported_declaration, scope: !8, entity: !355, line: 289)
!500 = !DIImportedEntity(tag: DW_TAG_imported_declaration, scope: !8, entity: !480, line: 293)
!501 = !DIImportedEntity(tag: DW_TAG_imported_declaration, scope: !8, entity: !485, line: 294)
!502 = !DIImportedEntity(tag: DW_TAG_imported_declaration, scope: !8, entity: !490, line: 295)
!503 = !DIImportedEntity(tag: DW_TAG_imported_declaration, scope: !8, entity: !504, line: 48)
!504 = !DIDerivedType(tag: DW_TAG_typedef, name: "int8_t", file: !505, line: 19, baseType: !506)
!505 = !DIFile(filename: "/mnt/icgridio2/safe/SDSoC/SDx/2017.1/SDK/gnu/aarch32/lin/gcc-arm-none-eabi/arm-none-eabi/libc/usr/include/sys/_stdint.h", directory: "/scratch/local/tmp.yK7okjyWNi")
!506 = !DIDerivedType(tag: DW_TAG_typedef, name: "__int8_t", file: !507, line: 27, baseType: !508)
!507 = !DIFile(filename: "/mnt/icgridio2/safe/SDSoC/SDx/2017.1/SDK/gnu/aarch32/lin/gcc-arm-none-eabi/arm-none-eabi/libc/usr/include/machine/_default_types.h", directory: "/scratch/local/tmp.yK7okjyWNi")
!508 = !DIBasicType(name: "signed char", size: 8, align: 8, encoding: DW_ATE_signed_char)
!509 = !DIImportedEntity(tag: DW_TAG_imported_declaration, scope: !8, entity: !510, line: 49)
!510 = !DIDerivedType(tag: DW_TAG_typedef, name: "int16_t", file: !505, line: 25, baseType: !511)
!511 = !DIDerivedType(tag: DW_TAG_typedef, name: "__int16_t", file: !507, line: 41, baseType: !75)
!512 = !DIImportedEntity(tag: DW_TAG_imported_declaration, scope: !8, entity: !513, line: 50)
!513 = !DIDerivedType(tag: DW_TAG_typedef, name: "int32_t", file: !505, line: 31, baseType: !514)
!514 = !DIDerivedType(tag: DW_TAG_typedef, name: "__int32_t", file: !507, line: 63, baseType: !21)
!515 = !DIImportedEntity(tag: DW_TAG_imported_declaration, scope: !8, entity: !516, line: 51)
!516 = !DIDerivedType(tag: DW_TAG_typedef, name: "int64_t", file: !505, line: 37, baseType: !517)
!517 = !DIDerivedType(tag: DW_TAG_typedef, name: "__int64_t", file: !507, line: 89, baseType: !488)
!518 = !DIImportedEntity(tag: DW_TAG_imported_declaration, scope: !8, entity: !519, line: 53)
!519 = !DIDerivedType(tag: DW_TAG_typedef, name: "int_fast8_t", file: !520, line: 51, baseType: !508)
!520 = !DIFile(filename: "/mnt/icgridio2/safe/SDSoC/SDx/2017.1/SDK/gnu/aarch32/lin/gcc-arm-none-eabi/arm-none-eabi/libc/usr/include/stdint.h", directory: "/scratch/local/tmp.yK7okjyWNi")
!521 = !DIImportedEntity(tag: DW_TAG_imported_declaration, scope: !8, entity: !522, line: 54)
!522 = !DIDerivedType(tag: DW_TAG_typedef, name: "int_fast16_t", file: !520, line: 61, baseType: !75)
!523 = !DIImportedEntity(tag: DW_TAG_imported_declaration, scope: !8, entity: !524, line: 55)
!524 = !DIDerivedType(tag: DW_TAG_typedef, name: "int_fast32_t", file: !520, line: 71, baseType: !21)
!525 = !DIImportedEntity(tag: DW_TAG_imported_declaration, scope: !8, entity: !526, line: 56)
!526 = !DIDerivedType(tag: DW_TAG_typedef, name: "int_fast64_t", file: !520, line: 81, baseType: !488)
!527 = !DIImportedEntity(tag: DW_TAG_imported_declaration, scope: !8, entity: !528, line: 58)
!528 = !DIDerivedType(tag: DW_TAG_typedef, name: "int_least8_t", file: !520, line: 21, baseType: !529)
!529 = !DIDerivedType(tag: DW_TAG_typedef, name: "__int_least8_t", file: !507, line: 120, baseType: !508)
!530 = !DIImportedEntity(tag: DW_TAG_imported_declaration, scope: !8, entity: !531, line: 59)
!531 = !DIDerivedType(tag: DW_TAG_typedef, name: "int_least16_t", file: !520, line: 27, baseType: !532)
!532 = !DIDerivedType(tag: DW_TAG_typedef, name: "__int_least16_t", file: !507, line: 146, baseType: !75)
!533 = !DIImportedEntity(tag: DW_TAG_imported_declaration, scope: !8, entity: !534, line: 60)
!534 = !DIDerivedType(tag: DW_TAG_typedef, name: "int_least32_t", file: !520, line: 33, baseType: !535)
!535 = !DIDerivedType(tag: DW_TAG_typedef, name: "__int_least32_t", file: !507, line: 168, baseType: !21)
!536 = !DIImportedEntity(tag: DW_TAG_imported_declaration, scope: !8, entity: !537, line: 61)
!537 = !DIDerivedType(tag: DW_TAG_typedef, name: "int_least64_t", file: !520, line: 39, baseType: !538)
!538 = !DIDerivedType(tag: DW_TAG_typedef, name: "__int_least64_t", file: !507, line: 186, baseType: !488)
!539 = !DIImportedEntity(tag: DW_TAG_imported_declaration, scope: !8, entity: !540, line: 63)
!540 = !DIDerivedType(tag: DW_TAG_typedef, name: "intmax_t", file: !520, line: 130, baseType: !488)
!541 = !DIImportedEntity(tag: DW_TAG_imported_declaration, scope: !8, entity: !542, line: 64)
!542 = !DIDerivedType(tag: DW_TAG_typedef, name: "intptr_t", file: !505, line: 42, baseType: !543)
!543 = !DIDerivedType(tag: DW_TAG_typedef, name: "__intptr_t", file: !507, line: 200, baseType: !233)
!544 = !DIImportedEntity(tag: DW_TAG_imported_declaration, scope: !8, entity: !545, line: 66)
!545 = !DIDerivedType(tag: DW_TAG_typedef, name: "uint8_t", file: !505, line: 20, baseType: !546)
!546 = !DIDerivedType(tag: DW_TAG_typedef, name: "__uint8_t", file: !507, line: 29, baseType: !53)
!547 = !DIImportedEntity(tag: DW_TAG_imported_declaration, scope: !8, entity: !548, line: 67)
!548 = !DIDerivedType(tag: DW_TAG_typedef, name: "uint16_t", file: !505, line: 26, baseType: !549)
!549 = !DIDerivedType(tag: DW_TAG_typedef, name: "__uint16_t", file: !507, line: 43, baseType: !154)
!550 = !DIImportedEntity(tag: DW_TAG_imported_declaration, scope: !8, entity: !551, line: 68)
!551 = !DIDerivedType(tag: DW_TAG_typedef, name: "uint32_t", file: !505, line: 32, baseType: !552)
!552 = !DIDerivedType(tag: DW_TAG_typedef, name: "__uint32_t", file: !507, line: 65, baseType: !128)
!553 = !DIImportedEntity(tag: DW_TAG_imported_declaration, scope: !8, entity: !554, line: 69)
!554 = !DIDerivedType(tag: DW_TAG_typedef, name: "uint64_t", file: !505, line: 38, baseType: !555)
!555 = !DIDerivedType(tag: DW_TAG_typedef, name: "__uint64_t", file: !507, line: 91, baseType: !148)
!556 = !DIImportedEntity(tag: DW_TAG_imported_declaration, scope: !8, entity: !557, line: 71)
!557 = !DIDerivedType(tag: DW_TAG_typedef, name: "uint_fast8_t", file: !520, line: 52, baseType: !53)
!558 = !DIImportedEntity(tag: DW_TAG_imported_declaration, scope: !8, entity: !559, line: 72)
!559 = !DIDerivedType(tag: DW_TAG_typedef, name: "uint_fast16_t", file: !520, line: 62, baseType: !154)
!560 = !DIImportedEntity(tag: DW_TAG_imported_declaration, scope: !8, entity: !561, line: 73)
!561 = !DIDerivedType(tag: DW_TAG_typedef, name: "uint_fast32_t", file: !520, line: 72, baseType: !128)
!562 = !DIImportedEntity(tag: DW_TAG_imported_declaration, scope: !8, entity: !563, line: 74)
!563 = !DIDerivedType(tag: DW_TAG_typedef, name: "uint_fast64_t", file: !520, line: 82, baseType: !148)
!564 = !DIImportedEntity(tag: DW_TAG_imported_declaration, scope: !8, entity: !565, line: 76)
!565 = !DIDerivedType(tag: DW_TAG_typedef, name: "uint_least8_t", file: !520, line: 22, baseType: !566)
!566 = !DIDerivedType(tag: DW_TAG_typedef, name: "__uint_least8_t", file: !507, line: 122, baseType: !53)
!567 = !DIImportedEntity(tag: DW_TAG_imported_declaration, scope: !8, entity: !568, line: 77)
!568 = !DIDerivedType(tag: DW_TAG_typedef, name: "uint_least16_t", file: !520, line: 28, baseType: !569)
!569 = !DIDerivedType(tag: DW_TAG_typedef, name: "__uint_least16_t", file: !507, line: 148, baseType: !154)
!570 = !DIImportedEntity(tag: DW_TAG_imported_declaration, scope: !8, entity: !571, line: 78)
!571 = !DIDerivedType(tag: DW_TAG_typedef, name: "uint_least32_t", file: !520, line: 34, baseType: !572)
!572 = !DIDerivedType(tag: DW_TAG_typedef, name: "__uint_least32_t", file: !507, line: 170, baseType: !128)
!573 = !DIImportedEntity(tag: DW_TAG_imported_declaration, scope: !8, entity: !574, line: 79)
!574 = !DIDerivedType(tag: DW_TAG_typedef, name: "uint_least64_t", file: !520, line: 40, baseType: !575)
!575 = !DIDerivedType(tag: DW_TAG_typedef, name: "__uint_least64_t", file: !507, line: 188, baseType: !148)
!576 = !DIImportedEntity(tag: DW_TAG_imported_declaration, scope: !8, entity: !577, line: 81)
!577 = !DIDerivedType(tag: DW_TAG_typedef, name: "uintmax_t", file: !520, line: 139, baseType: !148)
!578 = !DIImportedEntity(tag: DW_TAG_imported_declaration, scope: !8, entity: !579, line: 82)
!579 = !DIDerivedType(tag: DW_TAG_typedef, name: "uintptr_t", file: !505, line: 43, baseType: !580)
!580 = !DIDerivedType(tag: DW_TAG_typedef, name: "__uintptr_t", file: !507, line: 202, baseType: !207)
!581 = !DIImportedEntity(tag: DW_TAG_imported_declaration, scope: !8, entity: !582, line: 58)
!582 = distinct !DICompositeType(tag: DW_TAG_class_type, name: "exception_ptr", scope: !584, file: !583, line: 77, size: 32, align: 32, elements: !585, identifier: "_ZTSNSt15__exception_ptr13exception_ptrE")
!583 = !DIFile(filename: "/mnt/icgridio2/safe/SDSoC/SDx/2017.1/SDK/gnu/aarch32/lin/gcc-arm-none-eabi/arm-none-eabi/include/c++/6.2.1/bits/exception_ptr.h", directory: "/scratch/local/tmp.yK7okjyWNi")
!584 = !DINamespace(name: "__exception_ptr", scope: !8, file: !583, line: 53)
!585 = !{!586, !587, !591, !594, !595, !600, !601, !605, !610, !614, !618, !621, !622, !625, !628}
!586 = !DIDerivedType(tag: DW_TAG_member, name: "_M_exception_object", scope: !582, file: !583, line: 79, baseType: !84, size: 32, align: 32)
!587 = !DISubprogram(name: "exception_ptr", scope: !582, file: !583, line: 81, type: !588, isLocal: false, isDefinition: false, scopeLine: 81, flags: DIFlagExplicit | DIFlagPrototyped, isOptimized: false)
!588 = !DISubroutineType(types: !589)
!589 = !{null, !590, !84}
!590 = !DIDerivedType(tag: DW_TAG_pointer_type, baseType: !582, size: 32, align: 32, flags: DIFlagArtificial | DIFlagObjectPointer)
!591 = !DISubprogram(name: "_M_addref", linkageName: "_ZNSt15__exception_ptr13exception_ptr9_M_addrefEv", scope: !582, file: !583, line: 83, type: !592, isLocal: false, isDefinition: false, scopeLine: 83, flags: DIFlagPrototyped, isOptimized: false)
!592 = !DISubroutineType(types: !593)
!593 = !{null, !590}
!594 = !DISubprogram(name: "_M_release", linkageName: "_ZNSt15__exception_ptr13exception_ptr10_M_releaseEv", scope: !582, file: !583, line: 84, type: !592, isLocal: false, isDefinition: false, scopeLine: 84, flags: DIFlagPrototyped, isOptimized: false)
!595 = !DISubprogram(name: "_M_get", linkageName: "_ZNKSt15__exception_ptr13exception_ptr6_M_getEv", scope: !582, file: !583, line: 86, type: !596, isLocal: false, isDefinition: false, scopeLine: 86, flags: DIFlagPrototyped, isOptimized: false)
!596 = !DISubroutineType(types: !597)
!597 = !{!84, !598}
!598 = !DIDerivedType(tag: DW_TAG_pointer_type, baseType: !599, size: 32, align: 32, flags: DIFlagArtificial | DIFlagObjectPointer)
!599 = !DIDerivedType(tag: DW_TAG_const_type, baseType: !582)
!600 = !DISubprogram(name: "exception_ptr", scope: !582, file: !583, line: 92, type: !592, isLocal: false, isDefinition: false, scopeLine: 92, flags: DIFlagPublic | DIFlagPrototyped, isOptimized: false)
!601 = !DISubprogram(name: "exception_ptr", scope: !582, file: !583, line: 94, type: !602, isLocal: false, isDefinition: false, scopeLine: 94, flags: DIFlagPublic | DIFlagPrototyped, isOptimized: false)
!602 = !DISubroutineType(types: !603)
!603 = !{null, !590, !604}
!604 = !DIDerivedType(tag: DW_TAG_reference_type, baseType: !599, size: 32, align: 32)
!605 = !DISubprogram(name: "exception_ptr", scope: !582, file: !583, line: 97, type: !606, isLocal: false, isDefinition: false, scopeLine: 97, flags: DIFlagPublic | DIFlagPrototyped, isOptimized: false)
!606 = !DISubroutineType(types: !607)
!607 = !{null, !590, !608}
!608 = !DIDerivedType(tag: DW_TAG_typedef, name: "nullptr_t", scope: !8, file: !7, line: 205, baseType: !609)
!609 = !DIBasicType(tag: DW_TAG_unspecified_type, name: "decltype(nullptr)")
!610 = !DISubprogram(name: "exception_ptr", scope: !582, file: !583, line: 101, type: !611, isLocal: false, isDefinition: false, scopeLine: 101, flags: DIFlagPublic | DIFlagPrototyped, isOptimized: false)
!611 = !DISubroutineType(types: !612)
!612 = !{null, !590, !613}
!613 = !DIDerivedType(tag: DW_TAG_rvalue_reference_type, baseType: !582, size: 32, align: 32)
!614 = !DISubprogram(name: "operator=", linkageName: "_ZNSt15__exception_ptr13exception_ptraSERKS0_", scope: !582, file: !583, line: 114, type: !615, isLocal: false, isDefinition: false, scopeLine: 114, flags: DIFlagPublic | DIFlagPrototyped, isOptimized: false)
!615 = !DISubroutineType(types: !616)
!616 = !{!617, !590, !604}
!617 = !DIDerivedType(tag: DW_TAG_reference_type, baseType: !582, size: 32, align: 32)
!618 = !DISubprogram(name: "operator=", linkageName: "_ZNSt15__exception_ptr13exception_ptraSEOS0_", scope: !582, file: !583, line: 118, type: !619, isLocal: false, isDefinition: false, scopeLine: 118, flags: DIFlagPublic | DIFlagPrototyped, isOptimized: false)
!619 = !DISubroutineType(types: !620)
!620 = !{!617, !590, !613}
!621 = !DISubprogram(name: "~exception_ptr", scope: !582, file: !583, line: 125, type: !592, isLocal: false, isDefinition: false, scopeLine: 125, flags: DIFlagPublic | DIFlagPrototyped, isOptimized: false)
!622 = !DISubprogram(name: "swap", linkageName: "_ZNSt15__exception_ptr13exception_ptr4swapERS0_", scope: !582, file: !583, line: 128, type: !623, isLocal: false, isDefinition: false, scopeLine: 128, flags: DIFlagPublic | DIFlagPrototyped, isOptimized: false)
!623 = !DISubroutineType(types: !624)
!624 = !{null, !590, !617}
!625 = !DISubprogram(name: "operator bool", linkageName: "_ZNKSt15__exception_ptr13exception_ptrcvbEv", scope: !582, file: !583, line: 140, type: !626, isLocal: false, isDefinition: false, scopeLine: 140, flags: DIFlagPublic | DIFlagExplicit | DIFlagPrototyped, isOptimized: false)
!626 = !DISubroutineType(types: !627)
!627 = !{!23, !598}
!628 = !DISubprogram(name: "__cxa_exception_type", linkageName: "_ZNKSt15__exception_ptr13exception_ptr20__cxa_exception_typeEv", scope: !582, file: !583, line: 149, type: !629, isLocal: false, isDefinition: false, scopeLine: 149, flags: DIFlagPublic | DIFlagPrototyped, isOptimized: false)
!629 = !DISubroutineType(types: !630)
!630 = !{!631, !598}
!631 = !DIDerivedType(tag: DW_TAG_pointer_type, baseType: !632, size: 32, align: 32)
!632 = !DIDerivedType(tag: DW_TAG_const_type, baseType: !633)
!633 = !DICompositeType(tag: DW_TAG_class_type, name: "type_info", scope: !8, file: !583, line: 47, flags: DIFlagFwdDecl, identifier: "_ZTSSt9type_info")
!634 = !DIImportedEntity(tag: DW_TAG_imported_declaration, scope: !584, entity: !635, line: 71)
!635 = !DISubprogram(name: "rethrow_exception", linkageName: "_ZSt17rethrow_exceptionNSt15__exception_ptr13exception_ptrE", scope: !8, file: !583, line: 67, type: !636, isLocal: false, isDefinition: false, flags: DIFlagPrototyped, isOptimized: false)
!636 = !DISubroutineType(types: !637)
!637 = !{null, !582}
!638 = !DIImportedEntity(tag: DW_TAG_imported_declaration, scope: !479, entity: !639, line: 44)
!639 = !DIDerivedType(tag: DW_TAG_typedef, name: "size_t", scope: !8, file: !7, line: 201, baseType: !128)
!640 = !DIImportedEntity(tag: DW_TAG_imported_declaration, scope: !479, entity: !641, line: 45)
!641 = !DIDerivedType(tag: DW_TAG_typedef, name: "ptrdiff_t", scope: !8, file: !7, line: 202, baseType: !21)
!642 = !DIImportedEntity(tag: DW_TAG_imported_declaration, scope: !8, entity: !643, line: 53)
!643 = !DICompositeType(tag: DW_TAG_structure_type, name: "lconv", file: !644, line: 25, size: 448, align: 32, flags: DIFlagFwdDecl, identifier: "_ZTS5lconv")
!644 = !DIFile(filename: "/mnt/icgridio2/safe/SDSoC/SDx/2017.1/SDK/gnu/aarch32/lin/gcc-arm-none-eabi/arm-none-eabi/libc/usr/include/locale.h", directory: "/scratch/local/tmp.yK7okjyWNi")
!645 = !DIImportedEntity(tag: DW_TAG_imported_declaration, scope: !8, entity: !646, line: 54)
!646 = !DISubprogram(name: "setlocale", scope: !644, file: !644, line: 54, type: !647, isLocal: false, isDefinition: false, flags: DIFlagPrototyped, isOptimized: false)
!647 = !DISubroutineType(types: !648)
!648 = !{!120, !21, !104}
!649 = !DIImportedEntity(tag: DW_TAG_imported_declaration, scope: !8, entity: !650, line: 55)
!650 = !DISubprogram(name: "localeconv", scope: !644, file: !644, line: 55, type: !651, isLocal: false, isDefinition: false, flags: DIFlagPrototyped, isOptimized: false)
!651 = !DISubroutineType(types: !652)
!652 = !{!653}
!653 = !DIDerivedType(tag: DW_TAG_pointer_type, baseType: !643, size: 32, align: 32)
!654 = !DIImportedEntity(tag: DW_TAG_imported_declaration, scope: !8, entity: !655, line: 64)
!655 = !DISubprogram(name: "isalnum", scope: !656, file: !656, line: 9, type: !657, isLocal: false, isDefinition: false, flags: DIFlagPrototyped, isOptimized: false)
!656 = !DIFile(filename: "/mnt/icgridio2/safe/SDSoC/SDx/2017.1/SDK/gnu/aarch32/lin/gcc-arm-none-eabi/arm-none-eabi/libc/usr/include/ctype.h", directory: "/scratch/local/tmp.yK7okjyWNi")
!657 = !DISubroutineType(types: !658)
!658 = !{!21, !21}
!659 = !DIImportedEntity(tag: DW_TAG_imported_declaration, scope: !8, entity: !660, line: 65)
!660 = !DISubprogram(name: "isalpha", scope: !656, file: !656, line: 10, type: !657, isLocal: false, isDefinition: false, flags: DIFlagPrototyped, isOptimized: false)
!661 = !DIImportedEntity(tag: DW_TAG_imported_declaration, scope: !8, entity: !662, line: 66)
!662 = !DISubprogram(name: "iscntrl", scope: !656, file: !656, line: 11, type: !657, isLocal: false, isDefinition: false, flags: DIFlagPrototyped, isOptimized: false)
!663 = !DIImportedEntity(tag: DW_TAG_imported_declaration, scope: !8, entity: !664, line: 67)
!664 = !DISubprogram(name: "isdigit", scope: !656, file: !656, line: 12, type: !657, isLocal: false, isDefinition: false, flags: DIFlagPrototyped, isOptimized: false)
!665 = !DIImportedEntity(tag: DW_TAG_imported_declaration, scope: !8, entity: !666, line: 68)
!666 = !DISubprogram(name: "isgraph", scope: !656, file: !656, line: 13, type: !657, isLocal: false, isDefinition: false, flags: DIFlagPrototyped, isOptimized: false)
!667 = !DIImportedEntity(tag: DW_TAG_imported_declaration, scope: !8, entity: !668, line: 69)
!668 = !DISubprogram(name: "islower", scope: !656, file: !656, line: 14, type: !657, isLocal: false, isDefinition: false, flags: DIFlagPrototyped, isOptimized: false)
!669 = !DIImportedEntity(tag: DW_TAG_imported_declaration, scope: !8, entity: !670, line: 70)
!670 = !DISubprogram(name: "isprint", scope: !656, file: !656, line: 15, type: !657, isLocal: false, isDefinition: false, flags: DIFlagPrototyped, isOptimized: false)
!671 = !DIImportedEntity(tag: DW_TAG_imported_declaration, scope: !8, entity: !672, line: 71)
!672 = !DISubprogram(name: "ispunct", scope: !656, file: !656, line: 16, type: !657, isLocal: false, isDefinition: false, flags: DIFlagPrototyped, isOptimized: false)
!673 = !DIImportedEntity(tag: DW_TAG_imported_declaration, scope: !8, entity: !674, line: 72)
!674 = !DISubprogram(name: "isspace", scope: !656, file: !656, line: 17, type: !657, isLocal: false, isDefinition: false, flags: DIFlagPrototyped, isOptimized: false)
!675 = !DIImportedEntity(tag: DW_TAG_imported_declaration, scope: !8, entity: !676, line: 73)
!676 = !DISubprogram(name: "isupper", scope: !656, file: !656, line: 18, type: !657, isLocal: false, isDefinition: false, flags: DIFlagPrototyped, isOptimized: false)
!677 = !DIImportedEntity(tag: DW_TAG_imported_declaration, scope: !8, entity: !678, line: 74)
!678 = !DISubprogram(name: "isxdigit", scope: !656, file: !656, line: 19, type: !657, isLocal: false, isDefinition: false, flags: DIFlagPrototyped, isOptimized: false)
!679 = !DIImportedEntity(tag: DW_TAG_imported_declaration, scope: !8, entity: !680, line: 75)
!680 = !DISubprogram(name: "tolower", scope: !656, file: !656, line: 20, type: !657, isLocal: false, isDefinition: false, flags: DIFlagPrototyped, isOptimized: false)
!681 = !DIImportedEntity(tag: DW_TAG_imported_declaration, scope: !8, entity: !682, line: 76)
!682 = !DISubprogram(name: "toupper", scope: !656, file: !656, line: 21, type: !657, isLocal: false, isDefinition: false, flags: DIFlagPrototyped, isOptimized: false)
!683 = !DIImportedEntity(tag: DW_TAG_imported_declaration, scope: !8, entity: !684, line: 87)
!684 = !DISubprogram(name: "isblank", scope: !656, file: !656, line: 24, type: !657, isLocal: false, isDefinition: false, flags: DIFlagPrototyped, isOptimized: false)
!685 = !DIImportedEntity(tag: DW_TAG_imported_declaration, scope: !8, entity: !686, line: 124)
!686 = !DIDerivedType(tag: DW_TAG_typedef, name: "div_t", file: !687, line: 35, baseType: !688)
!687 = !DIFile(filename: "/mnt/icgridio2/safe/SDSoC/SDx/2017.1/SDK/gnu/aarch32/lin/gcc-arm-none-eabi/arm-none-eabi/libc/usr/include/stdlib.h", directory: "/scratch/local/tmp.yK7okjyWNi")
!688 = !DICompositeType(tag: DW_TAG_structure_type, file: !687, line: 31, size: 64, align: 32, flags: DIFlagFwdDecl, identifier: "_ZTS5div_t")
!689 = !DIImportedEntity(tag: DW_TAG_imported_declaration, scope: !8, entity: !690, line: 125)
!690 = !DIDerivedType(tag: DW_TAG_typedef, name: "ldiv_t", file: !687, line: 41, baseType: !691)
!691 = distinct !DICompositeType(tag: DW_TAG_structure_type, file: !687, line: 37, size: 64, align: 32, elements: !692, identifier: "_ZTS6ldiv_t")
!692 = !{!693, !694}
!693 = !DIDerivedType(tag: DW_TAG_member, name: "quot", scope: !691, file: !687, line: 39, baseType: !233, size: 32, align: 32)
!694 = !DIDerivedType(tag: DW_TAG_member, name: "rem", scope: !691, file: !687, line: 40, baseType: !233, size: 32, align: 32, offset: 32)
!695 = !DIImportedEntity(tag: DW_TAG_imported_declaration, scope: !8, entity: !696, line: 127)
!696 = !DISubprogram(name: "abort", scope: !687, file: !687, line: 65, type: !195, isLocal: false, isDefinition: false, flags: DIFlagPrototyped, isOptimized: false)
!697 = !DIImportedEntity(tag: DW_TAG_imported_declaration, scope: !8, entity: !698, line: 128)
!698 = !DISubprogram(name: "abs", scope: !687, file: !687, line: 66, type: !657, isLocal: false, isDefinition: false, flags: DIFlagPrototyped, isOptimized: false)
!699 = !DIImportedEntity(tag: DW_TAG_imported_declaration, scope: !8, entity: !700, line: 129)
!700 = !DISubprogram(name: "atexit", scope: !687, file: !687, line: 72, type: !701, isLocal: false, isDefinition: false, flags: DIFlagPrototyped, isOptimized: false)
!701 = !DISubroutineType(types: !702)
!702 = !{!21, !194}
!703 = !DIImportedEntity(tag: DW_TAG_imported_declaration, scope: !8, entity: !704, line: 135)
!704 = !DISubprogram(name: "atof", scope: !687, file: !687, line: 73, type: !705, isLocal: false, isDefinition: false, flags: DIFlagPrototyped, isOptimized: false)
!705 = !DISubroutineType(types: !706)
!706 = !{!419, !104}
!707 = !DIImportedEntity(tag: DW_TAG_imported_declaration, scope: !8, entity: !708, line: 136)
!708 = !DISubprogram(name: "atoi", scope: !687, file: !687, line: 77, type: !709, isLocal: false, isDefinition: false, flags: DIFlagPrototyped, isOptimized: false)
!709 = !DISubroutineType(types: !710)
!710 = !{!21, !104}
!711 = !DIImportedEntity(tag: DW_TAG_imported_declaration, scope: !8, entity: !712, line: 137)
!712 = !DISubprogram(name: "atol", scope: !687, file: !687, line: 79, type: !713, isLocal: false, isDefinition: false, flags: DIFlagPrototyped, isOptimized: false)
!713 = !DISubroutineType(types: !714)
!714 = !{!233, !104}
!715 = !DIImportedEntity(tag: DW_TAG_imported_declaration, scope: !8, entity: !716, line: 138)
!716 = !DISubprogram(name: "bsearch", scope: !687, file: !687, line: 81, type: !717, isLocal: false, isDefinition: false, flags: DIFlagPrototyped, isOptimized: false)
!717 = !DISubroutineType(types: !718)
!718 = !{!84, !719, !719, !294, !294, !721}
!719 = !DIDerivedType(tag: DW_TAG_pointer_type, baseType: !720, size: 32, align: 32)
!720 = !DIDerivedType(tag: DW_TAG_const_type, baseType: null)
!721 = !DIDerivedType(tag: DW_TAG_typedef, name: "__compar_fn_t", file: !687, line: 53, baseType: !722)
!722 = !DIDerivedType(tag: DW_TAG_pointer_type, baseType: !723, size: 32, align: 32)
!723 = !DISubroutineType(types: !724)
!724 = !{!21, !719, !719}
!725 = !DIImportedEntity(tag: DW_TAG_imported_declaration, scope: !8, entity: !726, line: 139)
!726 = !DISubprogram(name: "calloc", scope: !687, file: !687, line: 86, type: !727, isLocal: false, isDefinition: false, flags: DIFlagPrototyped, isOptimized: false)
!727 = !DISubroutineType(types: !728)
!728 = !{!84, !294, !294}
!729 = !DIImportedEntity(tag: DW_TAG_imported_declaration, scope: !8, entity: !730, line: 140)
!730 = !DISubprogram(name: "div", scope: !687, file: !687, line: 87, type: !731, isLocal: false, isDefinition: false, flags: DIFlagPrototyped, isOptimized: false)
!731 = !DISubroutineType(types: !732)
!732 = !{!686, !21, !21}
!733 = !DIImportedEntity(tag: DW_TAG_imported_declaration, scope: !8, entity: !734, line: 141)
!734 = !DISubprogram(name: "exit", scope: !687, file: !687, line: 88, type: !213, isLocal: false, isDefinition: false, flags: DIFlagPrototyped, isOptimized: false)
!735 = !DIImportedEntity(tag: DW_TAG_imported_declaration, scope: !8, entity: !736, line: 142)
!736 = !DISubprogram(name: "free", scope: !687, file: !687, line: 89, type: !737, isLocal: false, isDefinition: false, flags: DIFlagPrototyped, isOptimized: false)
!737 = !DISubroutineType(types: !738)
!738 = !{null, !84}
!739 = !DIImportedEntity(tag: DW_TAG_imported_declaration, scope: !8, entity: !740, line: 143)
!740 = !DISubprogram(name: "getenv", scope: !687, file: !687, line: 90, type: !741, isLocal: false, isDefinition: false, flags: DIFlagPrototyped, isOptimized: false)
!741 = !DISubroutineType(types: !742)
!742 = !{!120, !104}
!743 = !DIImportedEntity(tag: DW_TAG_imported_declaration, scope: !8, entity: !744, line: 144)
!744 = !DISubprogram(name: "labs", scope: !687, file: !687, line: 98, type: !745, isLocal: false, isDefinition: false, flags: DIFlagPrototyped, isOptimized: false)
!745 = !DISubroutineType(types: !746)
!746 = !{!233, !233}
!747 = !DIImportedEntity(tag: DW_TAG_imported_declaration, scope: !8, entity: !748, line: 145)
!748 = !DISubprogram(name: "ldiv", scope: !687, file: !687, line: 99, type: !749, isLocal: false, isDefinition: false, flags: DIFlagPrototyped, isOptimized: false)
!749 = !DISubroutineType(types: !750)
!750 = !{!690, !233, !233}
!751 = !DIImportedEntity(tag: DW_TAG_imported_declaration, scope: !8, entity: !752, line: 146)
!752 = !DISubprogram(name: "malloc", scope: !687, file: !687, line: 100, type: !753, isLocal: false, isDefinition: false, flags: DIFlagPrototyped, isOptimized: false)
!753 = !DISubroutineType(types: !754)
!754 = !{!84, !294}
!755 = !DIImportedEntity(tag: DW_TAG_imported_declaration, scope: !8, entity: !756, line: 148)
!756 = !DISubprogram(name: "mblen", scope: !687, file: !687, line: 101, type: !757, isLocal: false, isDefinition: false, flags: DIFlagPrototyped, isOptimized: false)
!757 = !DISubroutineType(types: !758)
!758 = !{!21, !104, !294}
!759 = !DIImportedEntity(tag: DW_TAG_imported_declaration, scope: !8, entity: !760, line: 149)
!760 = !DISubprogram(name: "mbstowcs", scope: !687, file: !687, line: 107, type: !761, isLocal: false, isDefinition: false, flags: DIFlagPrototyped, isOptimized: false)
!761 = !DISubroutineType(types: !762)
!762 = !{!294, !262, !104, !294}
!763 = !DIImportedEntity(tag: DW_TAG_imported_declaration, scope: !8, entity: !764, line: 150)
!764 = !DISubprogram(name: "mbtowc", scope: !687, file: !687, line: 103, type: !765, isLocal: false, isDefinition: false, flags: DIFlagPrototyped, isOptimized: false)
!765 = !DISubroutineType(types: !766)
!766 = !{!21, !262, !104, !294}
!767 = !DIImportedEntity(tag: DW_TAG_imported_declaration, scope: !8, entity: !768, line: 152)
!768 = !DISubprogram(name: "qsort", scope: !687, file: !687, line: 135, type: !769, isLocal: false, isDefinition: false, flags: DIFlagPrototyped, isOptimized: false)
!769 = !DISubroutineType(types: !770)
!770 = !{null, !84, !294, !294, !721}
!771 = !DIImportedEntity(tag: DW_TAG_imported_declaration, scope: !8, entity: !772, line: 158)
!772 = !DISubprogram(name: "rand", scope: !687, file: !687, line: 136, type: !773, isLocal: false, isDefinition: false, flags: DIFlagPrototyped, isOptimized: false)
!773 = !DISubroutineType(types: !774)
!774 = !{!21}
!775 = !DIImportedEntity(tag: DW_TAG_imported_declaration, scope: !8, entity: !776, line: 159)
!776 = !DISubprogram(name: "realloc", scope: !687, file: !687, line: 137, type: !777, isLocal: false, isDefinition: false, flags: DIFlagPrototyped, isOptimized: false)
!777 = !DISubroutineType(types: !778)
!778 = !{!84, !84, !294}
!779 = !DIImportedEntity(tag: DW_TAG_imported_declaration, scope: !8, entity: !780, line: 160)
!780 = !DISubprogram(name: "srand", scope: !687, file: !687, line: 147, type: !781, isLocal: false, isDefinition: false, flags: DIFlagPrototyped, isOptimized: false)
!781 = !DISubroutineType(types: !782)
!782 = !{null, !128}
!783 = !DIImportedEntity(tag: DW_TAG_imported_declaration, scope: !8, entity: !784, line: 161)
!784 = !DISubprogram(name: "strtod", scope: !687, file: !687, line: 148, type: !785, isLocal: false, isDefinition: false, flags: DIFlagPrototyped, isOptimized: false)
!785 = !DISubroutineType(types: !786)
!786 = !{!419, !104, !787}
!787 = !DIDerivedType(tag: DW_TAG_pointer_type, baseType: !120, size: 32, align: 32)
!788 = !DIImportedEntity(tag: DW_TAG_imported_declaration, scope: !8, entity: !789, line: 162)
!789 = !DISubprogram(name: "strtol", scope: !687, file: !687, line: 159, type: !790, isLocal: false, isDefinition: false, flags: DIFlagPrototyped, isOptimized: false)
!790 = !DISubroutineType(types: !791)
!791 = !{!233, !104, !787, !21}
!792 = !DIImportedEntity(tag: DW_TAG_imported_declaration, scope: !8, entity: !793, line: 163)
!793 = !DISubprogram(name: "strtoul", scope: !687, file: !687, line: 161, type: !794, isLocal: false, isDefinition: false, flags: DIFlagPrototyped, isOptimized: false)
!794 = !DISubroutineType(types: !795)
!795 = !{!207, !104, !787, !21}
!796 = !DIImportedEntity(tag: DW_TAG_imported_declaration, scope: !8, entity: !797, line: 164)
!797 = !DISubprogram(name: "system", scope: !687, file: !687, line: 164, type: !709, isLocal: false, isDefinition: false, flags: DIFlagPrototyped, isOptimized: false)
!798 = !DIImportedEntity(tag: DW_TAG_imported_declaration, scope: !8, entity: !799, line: 166)
!799 = !DISubprogram(name: "wcstombs", scope: !687, file: !687, line: 109, type: !800, isLocal: false, isDefinition: false, flags: DIFlagPrototyped, isOptimized: false)
!800 = !DISubroutineType(types: !801)
!801 = !{!294, !120, !272, !294}
!802 = !DIImportedEntity(tag: DW_TAG_imported_declaration, scope: !8, entity: !803, line: 167)
!803 = !DISubprogram(name: "wctomb", scope: !687, file: !687, line: 105, type: !804, isLocal: false, isDefinition: false, flags: DIFlagPrototyped, isOptimized: false)
!804 = !DISubroutineType(types: !805)
!805 = !{!21, !120, !263}
!806 = !DIImportedEntity(tag: DW_TAG_imported_declaration, scope: !479, entity: !807, line: 220)
!807 = !DIDerivedType(tag: DW_TAG_typedef, name: "lldiv_t", file: !687, line: 48, baseType: !808)
!808 = distinct !DICompositeType(tag: DW_TAG_structure_type, file: !687, line: 44, size: 128, align: 64, elements: !809, identifier: "_ZTS7lldiv_t")
!809 = !{!810, !811}
!810 = !DIDerivedType(tag: DW_TAG_member, name: "quot", scope: !808, file: !687, line: 46, baseType: !488, size: 64, align: 64)
!811 = !DIDerivedType(tag: DW_TAG_member, name: "rem", scope: !808, file: !687, line: 47, baseType: !488, size: 64, align: 64, offset: 64)
!812 = !DIImportedEntity(tag: DW_TAG_imported_declaration, scope: !479, entity: !813, line: 226)
!813 = !DISubprogram(name: "_Exit", scope: !687, file: !687, line: 175, type: !213, isLocal: false, isDefinition: false, flags: DIFlagPrototyped, isOptimized: false)
!814 = !DIImportedEntity(tag: DW_TAG_imported_declaration, scope: !479, entity: !815, line: 230)
!815 = !DISubprogram(name: "llabs", scope: !687, file: !687, line: 240, type: !816, isLocal: false, isDefinition: false, flags: DIFlagPrototyped, isOptimized: false)
!816 = !DISubroutineType(types: !817)
!817 = !{!488, !488}
!818 = !DIImportedEntity(tag: DW_TAG_imported_declaration, scope: !479, entity: !819, line: 236)
!819 = !DISubprogram(name: "lldiv", scope: !687, file: !687, line: 241, type: !820, isLocal: false, isDefinition: false, flags: DIFlagPrototyped, isOptimized: false)
!820 = !DISubroutineType(types: !821)
!821 = !{!807, !488, !488}
!822 = !DIImportedEntity(tag: DW_TAG_imported_declaration, scope: !479, entity: !823, line: 247)
!823 = !DISubprogram(name: "atoll", scope: !687, file: !687, line: 236, type: !824, isLocal: false, isDefinition: false, flags: DIFlagPrototyped, isOptimized: false)
!824 = !DISubroutineType(types: !825)
!825 = !{!488, !104}
!826 = !DIImportedEntity(tag: DW_TAG_imported_declaration, scope: !479, entity: !827, line: 248)
!827 = !DISubprogram(name: "strtoll", scope: !687, file: !687, line: 242, type: !828, isLocal: false, isDefinition: false, flags: DIFlagPrototyped, isOptimized: false)
!828 = !DISubroutineType(types: !829)
!829 = !{!488, !104, !787, !21}
!830 = !DIImportedEntity(tag: DW_TAG_imported_declaration, scope: !479, entity: !831, line: 249)
!831 = !DISubprogram(name: "strtoull", scope: !687, file: !687, line: 246, type: !832, isLocal: false, isDefinition: false, flags: DIFlagPrototyped, isOptimized: false)
!832 = !DISubroutineType(types: !833)
!833 = !{!148, !104, !787, !21}
!834 = !DIImportedEntity(tag: DW_TAG_imported_declaration, scope: !479, entity: !835, line: 251)
!835 = !DISubprogram(name: "strtof", scope: !687, file: !687, line: 151, type: !836, isLocal: false, isDefinition: false, flags: DIFlagPrototyped, isOptimized: false)
!836 = !DISubroutineType(types: !837)
!837 = !{!425, !104, !787}
!838 = !DIImportedEntity(tag: DW_TAG_imported_declaration, scope: !479, entity: !839, line: 252)
!839 = !DISubprogram(name: "strtold", scope: !687, file: !687, line: 296, type: !840, isLocal: false, isDefinition: false, flags: DIFlagPrototyped, isOptimized: false)
!840 = !DISubroutineType(types: !841)
!841 = !{!483, !104, !787}
!842 = !DIImportedEntity(tag: DW_TAG_imported_declaration, scope: !8, entity: !807, line: 260)
!843 = !DIImportedEntity(tag: DW_TAG_imported_declaration, scope: !8, entity: !813, line: 262)
!844 = !DIImportedEntity(tag: DW_TAG_imported_declaration, scope: !8, entity: !815, line: 264)
!845 = !DIImportedEntity(tag: DW_TAG_imported_declaration, scope: !8, entity: !846, line: 265)
!846 = !DISubprogram(name: "div", linkageName: "_ZN9__gnu_cxx3divExx", scope: !479, file: !847, line: 233, type: !820, isLocal: false, isDefinition: false, flags: DIFlagPrototyped, isOptimized: false)
!847 = !DIFile(filename: "/mnt/icgridio2/safe/SDSoC/SDx/2017.1/SDK/gnu/aarch32/lin/gcc-arm-none-eabi/arm-none-eabi/include/c++/6.2.1/cstdlib", directory: "/scratch/local/tmp.yK7okjyWNi")
!848 = !DIImportedEntity(tag: DW_TAG_imported_declaration, scope: !8, entity: !819, line: 266)
!849 = !DIImportedEntity(tag: DW_TAG_imported_declaration, scope: !8, entity: !823, line: 268)
!850 = !DIImportedEntity(tag: DW_TAG_imported_declaration, scope: !8, entity: !835, line: 269)
!851 = !DIImportedEntity(tag: DW_TAG_imported_declaration, scope: !8, entity: !827, line: 270)
!852 = !DIImportedEntity(tag: DW_TAG_imported_declaration, scope: !8, entity: !831, line: 271)
!853 = !DIImportedEntity(tag: DW_TAG_imported_declaration, scope: !8, entity: !839, line: 272)
!854 = !DIImportedEntity(tag: DW_TAG_imported_declaration, scope: !8, entity: !855, line: 98)
!855 = !DIDerivedType(tag: DW_TAG_typedef, name: "FILE", file: !40, line: 53, baseType: !66)
!856 = !DIImportedEntity(tag: DW_TAG_imported_declaration, scope: !8, entity: !857, line: 99)
!857 = !DIDerivedType(tag: DW_TAG_typedef, name: "fpos_t", file: !858, line: 60, baseType: !232)
!858 = !DIFile(filename: "/mnt/icgridio2/safe/SDSoC/SDx/2017.1/SDK/gnu/aarch32/lin/gcc-arm-none-eabi/arm-none-eabi/libc/usr/include/stdio.h", directory: "/scratch/local/tmp.yK7okjyWNi")
!859 = !DIImportedEntity(tag: DW_TAG_imported_declaration, scope: !8, entity: !860, line: 101)
!860 = !DISubprogram(name: "clearerr", scope: !858, file: !858, line: 219, type: !861, isLocal: false, isDefinition: false, flags: DIFlagPrototyped, isOptimized: false)
!861 = !DISubroutineType(types: !862)
!862 = !{null, !863}
!863 = !DIDerivedType(tag: DW_TAG_pointer_type, baseType: !855, size: 32, align: 32)
!864 = !DIImportedEntity(tag: DW_TAG_imported_declaration, scope: !8, entity: !865, line: 102)
!865 = !DISubprogram(name: "fclose", scope: !858, file: !858, line: 172, type: !866, isLocal: false, isDefinition: false, flags: DIFlagPrototyped, isOptimized: false)
!866 = !DISubroutineType(types: !867)
!867 = !{!21, !863}
!868 = !DIImportedEntity(tag: DW_TAG_imported_declaration, scope: !8, entity: !869, line: 103)
!869 = !DISubprogram(name: "feof", scope: !858, file: !858, line: 220, type: !866, isLocal: false, isDefinition: false, flags: DIFlagPrototyped, isOptimized: false)
!870 = !DIImportedEntity(tag: DW_TAG_imported_declaration, scope: !8, entity: !871, line: 104)
!871 = !DISubprogram(name: "ferror", scope: !858, file: !858, line: 221, type: !866, isLocal: false, isDefinition: false, flags: DIFlagPrototyped, isOptimized: false)
!872 = !DIImportedEntity(tag: DW_TAG_imported_declaration, scope: !8, entity: !873, line: 105)
!873 = !DISubprogram(name: "fflush", scope: !858, file: !858, line: 173, type: !866, isLocal: false, isDefinition: false, flags: DIFlagPrototyped, isOptimized: false)
!874 = !DIImportedEntity(tag: DW_TAG_imported_declaration, scope: !8, entity: !875, line: 106)
!875 = !DISubprogram(name: "fgetc", scope: !858, file: !858, line: 193, type: !866, isLocal: false, isDefinition: false, flags: DIFlagPrototyped, isOptimized: false)
!876 = !DIImportedEntity(tag: DW_TAG_imported_declaration, scope: !8, entity: !877, line: 107)
!877 = !DISubprogram(name: "fgetpos", scope: !858, file: !858, line: 209, type: !878, isLocal: false, isDefinition: false, flags: DIFlagPrototyped, isOptimized: false)
!878 = !DISubroutineType(types: !879)
!879 = !{!21, !863, !880}
!880 = !DIDerivedType(tag: DW_TAG_pointer_type, baseType: !857, size: 32, align: 32)
!881 = !DIImportedEntity(tag: DW_TAG_imported_declaration, scope: !8, entity: !882, line: 108)
!882 = !DISubprogram(name: "fgets", scope: !858, file: !858, line: 194, type: !883, isLocal: false, isDefinition: false, flags: DIFlagPrototyped, isOptimized: false)
!883 = !DISubroutineType(types: !884)
!884 = !{!120, !120, !21, !863}
!885 = !DIImportedEntity(tag: DW_TAG_imported_declaration, scope: !8, entity: !886, line: 109)
!886 = !DISubprogram(name: "fopen", scope: !858, file: !858, line: 224, type: !887, isLocal: false, isDefinition: false, flags: DIFlagPrototyped, isOptimized: false)
!887 = !DISubroutineType(types: !888)
!888 = !{!863, !104, !104}
!889 = !DIImportedEntity(tag: DW_TAG_imported_declaration, scope: !8, entity: !890, line: 110)
!890 = !DISubprogram(name: "fprintf", scope: !858, file: !858, line: 177, type: !891, isLocal: false, isDefinition: false, flags: DIFlagPrototyped, isOptimized: false)
!891 = !DISubroutineType(types: !892)
!892 = !{!21, !863, !104, null}
!893 = !DIImportedEntity(tag: DW_TAG_imported_declaration, scope: !8, entity: !894, line: 111)
!894 = !DISubprogram(name: "fputc", scope: !858, file: !858, line: 195, type: !895, isLocal: false, isDefinition: false, flags: DIFlagPrototyped, isOptimized: false)
!895 = !DISubroutineType(types: !896)
!896 = !{!21, !21, !863}
!897 = !DIImportedEntity(tag: DW_TAG_imported_declaration, scope: !8, entity: !898, line: 112)
!898 = !DISubprogram(name: "fputs", scope: !858, file: !858, line: 196, type: !899, isLocal: false, isDefinition: false, flags: DIFlagPrototyped, isOptimized: false)
!899 = !DISubroutineType(types: !900)
!900 = !{!21, !104, !863}
!901 = !DIImportedEntity(tag: DW_TAG_imported_declaration, scope: !8, entity: !902, line: 113)
!902 = !DISubprogram(name: "fread", scope: !858, file: !858, line: 204, type: !903, isLocal: false, isDefinition: false, flags: DIFlagPrototyped, isOptimized: false)
!903 = !DISubroutineType(types: !904)
!904 = !{!294, !84, !294, !294, !863}
!905 = !DIImportedEntity(tag: DW_TAG_imported_declaration, scope: !8, entity: !906, line: 114)
!906 = !DISubprogram(name: "freopen", scope: !858, file: !858, line: 174, type: !907, isLocal: false, isDefinition: false, flags: DIFlagPrototyped, isOptimized: false)
!907 = !DISubroutineType(types: !908)
!908 = !{!863, !104, !104, !863}
!909 = !DIImportedEntity(tag: DW_TAG_imported_declaration, scope: !8, entity: !910, line: 115)
!910 = !DISubprogram(name: "fscanf", scope: !858, file: !858, line: 179, type: !891, isLocal: false, isDefinition: false, flags: DIFlagPrototyped, isOptimized: false)
!911 = !DIImportedEntity(tag: DW_TAG_imported_declaration, scope: !8, entity: !912, line: 116)
!912 = !DISubprogram(name: "fseek", scope: !858, file: !858, line: 211, type: !913, isLocal: false, isDefinition: false, flags: DIFlagPrototyped, isOptimized: false)
!913 = !DISubroutineType(types: !914)
!914 = !{!21, !863, !233, !21}
!915 = !DIImportedEntity(tag: DW_TAG_imported_declaration, scope: !8, entity: !916, line: 117)
!916 = !DISubprogram(name: "fsetpos", scope: !858, file: !858, line: 215, type: !917, isLocal: false, isDefinition: false, flags: DIFlagPrototyped, isOptimized: false)
!917 = !DISubroutineType(types: !918)
!918 = !{!21, !863, !919}
!919 = !DIDerivedType(tag: DW_TAG_pointer_type, baseType: !920, size: 32, align: 32)
!920 = !DIDerivedType(tag: DW_TAG_const_type, baseType: !857)
!921 = !DIImportedEntity(tag: DW_TAG_imported_declaration, scope: !8, entity: !922, line: 118)
!922 = !DISubprogram(name: "ftell", scope: !858, file: !858, line: 217, type: !923, isLocal: false, isDefinition: false, flags: DIFlagPrototyped, isOptimized: false)
!923 = !DISubroutineType(types: !924)
!924 = !{!233, !863}
!925 = !DIImportedEntity(tag: DW_TAG_imported_declaration, scope: !8, entity: !926, line: 119)
!926 = !DISubprogram(name: "fwrite", scope: !858, file: !858, line: 205, type: !927, isLocal: false, isDefinition: false, flags: DIFlagPrototyped, isOptimized: false)
!927 = !DISubroutineType(types: !928)
!928 = !{!294, !719, !294, !294, !863}
!929 = !DIImportedEntity(tag: DW_TAG_imported_declaration, scope: !8, entity: !930, line: 120)
!930 = !DISubprogram(name: "getc", scope: !858, file: !858, line: 197, type: !866, isLocal: false, isDefinition: false, flags: DIFlagPrototyped, isOptimized: false)
!931 = !DIImportedEntity(tag: DW_TAG_imported_declaration, scope: !8, entity: !932, line: 121)
!932 = !DISubprogram(name: "getchar", scope: !858, file: !858, line: 198, type: !773, isLocal: false, isDefinition: false, flags: DIFlagPrototyped, isOptimized: false)
!933 = !DIImportedEntity(tag: DW_TAG_imported_declaration, scope: !8, entity: !934, line: 124)
!934 = !DISubprogram(name: "gets", scope: !858, file: !858, line: 199, type: !935, isLocal: false, isDefinition: false, flags: DIFlagPrototyped, isOptimized: false)
!935 = !DISubroutineType(types: !936)
!936 = !{!120, !120}
!937 = !DIImportedEntity(tag: DW_TAG_imported_declaration, scope: !8, entity: !938, line: 126)
!938 = !DISubprogram(name: "perror", scope: !858, file: !858, line: 222, type: !939, isLocal: false, isDefinition: false, flags: DIFlagPrototyped, isOptimized: false)
!939 = !DISubroutineType(types: !940)
!940 = !{null, !104}
!941 = !DIImportedEntity(tag: DW_TAG_imported_declaration, scope: !8, entity: !942, line: 127)
!942 = !DISubprogram(name: "printf", scope: !858, file: !858, line: 181, type: !943, isLocal: false, isDefinition: false, flags: DIFlagPrototyped, isOptimized: false)
!943 = !DISubroutineType(types: !944)
!944 = !{!21, !104, null}
!945 = !DIImportedEntity(tag: DW_TAG_imported_declaration, scope: !8, entity: !946, line: 128)
!946 = !DISubprogram(name: "putc", scope: !858, file: !858, line: 200, type: !895, isLocal: false, isDefinition: false, flags: DIFlagPrototyped, isOptimized: false)
!947 = !DIImportedEntity(tag: DW_TAG_imported_declaration, scope: !8, entity: !948, line: 129)
!948 = !DISubprogram(name: "putchar", scope: !858, file: !858, line: 201, type: !657, isLocal: false, isDefinition: false, flags: DIFlagPrototyped, isOptimized: false)
!949 = !DIImportedEntity(tag: DW_TAG_imported_declaration, scope: !8, entity: !950, line: 130)
!950 = !DISubprogram(name: "puts", scope: !858, file: !858, line: 202, type: !709, isLocal: false, isDefinition: false, flags: DIFlagPrototyped, isOptimized: false)
!951 = !DIImportedEntity(tag: DW_TAG_imported_declaration, scope: !8, entity: !952, line: 131)
!952 = !DISubprogram(name: "remove", scope: !858, file: !858, line: 227, type: !709, isLocal: false, isDefinition: false, flags: DIFlagPrototyped, isOptimized: false)
!953 = !DIImportedEntity(tag: DW_TAG_imported_declaration, scope: !8, entity: !954, line: 132)
!954 = !DISubprogram(name: "rename", scope: !858, file: !858, line: 228, type: !955, isLocal: false, isDefinition: false, flags: DIFlagPrototyped, isOptimized: false)
!955 = !DISubroutineType(types: !956)
!956 = !{!21, !104, !104}
!957 = !DIImportedEntity(tag: DW_TAG_imported_declaration, scope: !8, entity: !958, line: 133)
!958 = !DISubprogram(name: "rewind", scope: !858, file: !858, line: 218, type: !861, isLocal: false, isDefinition: false, flags: DIFlagPrototyped, isOptimized: false)
!959 = !DIImportedEntity(tag: DW_TAG_imported_declaration, scope: !8, entity: !960, line: 134)
!960 = !DISubprogram(name: "scanf", scope: !858, file: !858, line: 183, type: !943, isLocal: false, isDefinition: false, flags: DIFlagPrototyped, isOptimized: false)
!961 = !DIImportedEntity(tag: DW_TAG_imported_declaration, scope: !8, entity: !962, line: 135)
!962 = !DISubprogram(name: "setbuf", scope: !858, file: !858, line: 175, type: !963, isLocal: false, isDefinition: false, flags: DIFlagPrototyped, isOptimized: false)
!963 = !DISubroutineType(types: !964)
!964 = !{null, !863, !120}
!965 = !DIImportedEntity(tag: DW_TAG_imported_declaration, scope: !8, entity: !966, line: 136)
!966 = !DISubprogram(name: "setvbuf", scope: !858, file: !858, line: 176, type: !967, isLocal: false, isDefinition: false, flags: DIFlagPrototyped, isOptimized: false)
!967 = !DISubroutineType(types: !968)
!968 = !{!21, !863, !120, !21, !294}
!969 = !DIImportedEntity(tag: DW_TAG_imported_declaration, scope: !8, entity: !970, line: 137)
!970 = !DISubprogram(name: "sprintf", scope: !858, file: !858, line: 225, type: !971, isLocal: false, isDefinition: false, flags: DIFlagPrototyped, isOptimized: false)
!971 = !DISubroutineType(types: !972)
!972 = !{!21, !120, !104, null}
!973 = !DIImportedEntity(tag: DW_TAG_imported_declaration, scope: !8, entity: !974, line: 138)
!974 = !DISubprogram(name: "sscanf", scope: !858, file: !858, line: 185, type: !975, isLocal: false, isDefinition: false, flags: DIFlagPrototyped, isOptimized: false)
!975 = !DISubroutineType(types: !976)
!976 = !{!21, !104, !104, null}
!977 = !DIImportedEntity(tag: DW_TAG_imported_declaration, scope: !8, entity: !978, line: 139)
!978 = !DISubprogram(name: "tmpfile", scope: !858, file: !858, line: 167, type: !979, isLocal: false, isDefinition: false, flags: DIFlagPrototyped, isOptimized: false)
!979 = !DISubroutineType(types: !980)
!980 = !{!863}
!981 = !DIImportedEntity(tag: DW_TAG_imported_declaration, scope: !8, entity: !982, line: 141)
!982 = !DISubprogram(name: "tmpnam", scope: !858, file: !858, line: 168, type: !935, isLocal: false, isDefinition: false, flags: DIFlagPrototyped, isOptimized: false)
!983 = !DIImportedEntity(tag: DW_TAG_imported_declaration, scope: !8, entity: !984, line: 143)
!984 = !DISubprogram(name: "ungetc", scope: !858, file: !858, line: 203, type: !895, isLocal: false, isDefinition: false, flags: DIFlagPrototyped, isOptimized: false)
!985 = !DIImportedEntity(tag: DW_TAG_imported_declaration, scope: !8, entity: !986, line: 144)
!986 = !DISubprogram(name: "vfprintf", scope: !858, file: !858, line: 187, type: !987, isLocal: false, isDefinition: false, flags: DIFlagPrototyped, isOptimized: false)
!987 = !DISubroutineType(types: !988)
!988 = !{!21, !863, !104, !333}
!989 = !DIImportedEntity(tag: DW_TAG_imported_declaration, scope: !8, entity: !990, line: 145)
!990 = !DISubprogram(name: "vprintf", scope: !858, file: !858, line: 189, type: !991, isLocal: false, isDefinition: false, flags: DIFlagPrototyped, isOptimized: false)
!991 = !DISubroutineType(types: !992)
!992 = !{!21, !104, !333}
!993 = !DIImportedEntity(tag: DW_TAG_imported_declaration, scope: !8, entity: !994, line: 146)
!994 = !DISubprogram(name: "vsprintf", scope: !858, file: !858, line: 191, type: !995, isLocal: false, isDefinition: false, flags: DIFlagPrototyped, isOptimized: false)
!995 = !DISubroutineType(types: !996)
!996 = !{!21, !120, !104, !333}
!997 = !DIImportedEntity(tag: DW_TAG_imported_declaration, scope: !479, entity: !998, line: 175)
!998 = !DISubprogram(name: "snprintf", scope: !858, file: !858, line: 247, type: !999, isLocal: false, isDefinition: false, flags: DIFlagPrototyped, isOptimized: false)
!999 = !DISubroutineType(types: !1000)
!1000 = !{!21, !120, !294, !104, null}
!1001 = !DIImportedEntity(tag: DW_TAG_imported_declaration, scope: !479, entity: !1002, line: 176)
!1002 = !DISubprogram(name: "vfscanf", scope: !858, file: !858, line: 251, type: !987, isLocal: false, isDefinition: false, flags: DIFlagPrototyped, isOptimized: false)
!1003 = !DIImportedEntity(tag: DW_TAG_imported_declaration, scope: !479, entity: !1004, line: 177)
!1004 = !DISubprogram(name: "vscanf", scope: !858, file: !858, line: 253, type: !991, isLocal: false, isDefinition: false, flags: DIFlagPrototyped, isOptimized: false)
!1005 = !DIImportedEntity(tag: DW_TAG_imported_declaration, scope: !479, entity: !1006, line: 178)
!1006 = !DISubprogram(name: "vsnprintf", scope: !858, file: !858, line: 249, type: !1007, isLocal: false, isDefinition: false, flags: DIFlagPrototyped, isOptimized: false)
!1007 = !DISubroutineType(types: !1008)
!1008 = !{!21, !120, !294, !104, !333}
!1009 = !DIImportedEntity(tag: DW_TAG_imported_declaration, scope: !479, entity: !1010, line: 179)
!1010 = !DISubprogram(name: "vsscanf", scope: !858, file: !858, line: 255, type: !1011, isLocal: false, isDefinition: false, flags: DIFlagPrototyped, isOptimized: false)
!1011 = !DISubroutineType(types: !1012)
!1012 = !{!21, !104, !104, !333}
!1013 = !DIImportedEntity(tag: DW_TAG_imported_declaration, scope: !8, entity: !998, line: 185)
!1014 = !DIImportedEntity(tag: DW_TAG_imported_declaration, scope: !8, entity: !1002, line: 186)
!1015 = !DIImportedEntity(tag: DW_TAG_imported_declaration, scope: !8, entity: !1004, line: 187)
!1016 = !DIImportedEntity(tag: DW_TAG_imported_declaration, scope: !8, entity: !1006, line: 188)
!1017 = !DIImportedEntity(tag: DW_TAG_imported_declaration, scope: !8, entity: !1010, line: 189)
!1018 = !DIImportedEntity(tag: DW_TAG_imported_declaration, scope: !8, entity: !1019, line: 106)
!1019 = !DISubprogram(name: "acos", scope: !1020, file: !1020, line: 125, type: !1021, isLocal: false, isDefinition: false, flags: DIFlagPrototyped, isOptimized: false)
!1020 = !DIFile(filename: "/mnt/icgridio2/safe/SDSoC/SDx/2017.1/SDK/gnu/aarch32/lin/gcc-arm-none-eabi/arm-none-eabi/libc/usr/include/math.h", directory: "/scratch/local/tmp.yK7okjyWNi")
!1021 = !DISubroutineType(types: !1022)
!1022 = !{!419, !419}
!1023 = !DIImportedEntity(tag: DW_TAG_imported_declaration, scope: !8, entity: !1024, line: 125)
!1024 = !DISubprogram(name: "asin", scope: !1020, file: !1020, line: 126, type: !1021, isLocal: false, isDefinition: false, flags: DIFlagPrototyped, isOptimized: false)
!1025 = !DIImportedEntity(tag: DW_TAG_imported_declaration, scope: !8, entity: !1026, line: 144)
!1026 = !DISubprogram(name: "atan", scope: !1020, file: !1020, line: 109, type: !1021, isLocal: false, isDefinition: false, flags: DIFlagPrototyped, isOptimized: false)
!1027 = !DIImportedEntity(tag: DW_TAG_imported_declaration, scope: !8, entity: !1028, line: 163)
!1028 = !DISubprogram(name: "atan2", scope: !1020, file: !1020, line: 127, type: !1029, isLocal: false, isDefinition: false, flags: DIFlagPrototyped, isOptimized: false)
!1029 = !DISubroutineType(types: !1030)
!1030 = !{!419, !419, !419}
!1031 = !DIImportedEntity(tag: DW_TAG_imported_declaration, scope: !8, entity: !1032, line: 184)
!1032 = !DISubprogram(name: "ceil", scope: !1020, file: !1020, line: 116, type: !1021, isLocal: false, isDefinition: false, flags: DIFlagPrototyped, isOptimized: false)
!1033 = !DIImportedEntity(tag: DW_TAG_imported_declaration, scope: !8, entity: !1034, line: 203)
!1034 = !DISubprogram(name: "cos", scope: !1020, file: !1020, line: 110, type: !1021, isLocal: false, isDefinition: false, flags: DIFlagPrototyped, isOptimized: false)
!1035 = !DIImportedEntity(tag: DW_TAG_imported_declaration, scope: !8, entity: !1036, line: 222)
!1036 = !DISubprogram(name: "cosh", scope: !1020, file: !1020, line: 128, type: !1021, isLocal: false, isDefinition: false, flags: DIFlagPrototyped, isOptimized: false)
!1037 = !DIImportedEntity(tag: DW_TAG_imported_declaration, scope: !8, entity: !1038, line: 241)
!1038 = !DISubprogram(name: "exp", scope: !1020, file: !1020, line: 130, type: !1021, isLocal: false, isDefinition: false, flags: DIFlagPrototyped, isOptimized: false)
!1039 = !DIImportedEntity(tag: DW_TAG_imported_declaration, scope: !8, entity: !1040, line: 260)
!1040 = !DISubprogram(name: "fabs", scope: !1020, file: !1020, line: 117, type: !1021, isLocal: false, isDefinition: false, flags: DIFlagPrototyped, isOptimized: false)
!1041 = !DIImportedEntity(tag: DW_TAG_imported_declaration, scope: !8, entity: !1042, line: 279)
!1042 = !DISubprogram(name: "floor", scope: !1020, file: !1020, line: 118, type: !1021, isLocal: false, isDefinition: false, flags: DIFlagPrototyped, isOptimized: false)
!1043 = !DIImportedEntity(tag: DW_TAG_imported_declaration, scope: !8, entity: !1044, line: 298)
!1044 = !DISubprogram(name: "fmod", scope: !1020, file: !1020, line: 136, type: !1029, isLocal: false, isDefinition: false, flags: DIFlagPrototyped, isOptimized: false)
!1045 = !DIImportedEntity(tag: DW_TAG_imported_declaration, scope: !8, entity: !1046, line: 319)
!1046 = !DISubprogram(name: "frexp", scope: !1020, file: !1020, line: 114, type: !1047, isLocal: false, isDefinition: false, flags: DIFlagPrototyped, isOptimized: false)
!1047 = !DISubroutineType(types: !1048)
!1048 = !{!419, !419, !1049}
!1049 = !DIDerivedType(tag: DW_TAG_pointer_type, baseType: !21, size: 32, align: 32)
!1050 = !DIImportedEntity(tag: DW_TAG_imported_declaration, scope: !8, entity: !1051, line: 338)
!1051 = !DISubprogram(name: "ldexp", scope: !1020, file: !1020, line: 131, type: !1052, isLocal: false, isDefinition: false, flags: DIFlagPrototyped, isOptimized: false)
!1052 = !DISubroutineType(types: !1053)
!1053 = !{!419, !419, !21}
!1054 = !DIImportedEntity(tag: DW_TAG_imported_declaration, scope: !8, entity: !1055, line: 357)
!1055 = !DISubprogram(name: "log", scope: !1020, file: !1020, line: 132, type: !1021, isLocal: false, isDefinition: false, flags: DIFlagPrototyped, isOptimized: false)
!1056 = !DIImportedEntity(tag: DW_TAG_imported_declaration, scope: !8, entity: !1057, line: 376)
!1057 = !DISubprogram(name: "log10", scope: !1020, file: !1020, line: 133, type: !1021, isLocal: false, isDefinition: false, flags: DIFlagPrototyped, isOptimized: false)
!1058 = !DIImportedEntity(tag: DW_TAG_imported_declaration, scope: !8, entity: !1059, line: 395)
!1059 = !DISubprogram(name: "modf", scope: !1020, file: !1020, line: 115, type: !1060, isLocal: false, isDefinition: false, flags: DIFlagPrototyped, isOptimized: false)
!1060 = !DISubroutineType(types: !1061)
!1061 = !{!419, !419, !1062}
!1062 = !DIDerivedType(tag: DW_TAG_pointer_type, baseType: !419, size: 32, align: 32)
!1063 = !DIImportedEntity(tag: DW_TAG_imported_declaration, scope: !8, entity: !1064, line: 407)
!1064 = !DISubprogram(name: "pow", scope: !1020, file: !1020, line: 134, type: !1029, isLocal: false, isDefinition: false, flags: DIFlagPrototyped, isOptimized: false)
!1065 = !DIImportedEntity(tag: DW_TAG_imported_declaration, scope: !8, entity: !1066, line: 444)
!1066 = !DISubprogram(name: "sin", scope: !1020, file: !1020, line: 111, type: !1021, isLocal: false, isDefinition: false, flags: DIFlagPrototyped, isOptimized: false)
!1067 = !DIImportedEntity(tag: DW_TAG_imported_declaration, scope: !8, entity: !1068, line: 463)
!1068 = !DISubprogram(name: "sinh", scope: !1020, file: !1020, line: 129, type: !1021, isLocal: false, isDefinition: false, flags: DIFlagPrototyped, isOptimized: false)
!1069 = !DIImportedEntity(tag: DW_TAG_imported_declaration, scope: !8, entity: !1070, line: 482)
!1070 = !DISubprogram(name: "sqrt", scope: !1020, file: !1020, line: 135, type: !1021, isLocal: false, isDefinition: false, flags: DIFlagPrototyped, isOptimized: false)
!1071 = !DIImportedEntity(tag: DW_TAG_imported_declaration, scope: !8, entity: !1072, line: 501)
!1072 = !DISubprogram(name: "tan", scope: !1020, file: !1020, line: 112, type: !1021, isLocal: false, isDefinition: false, flags: DIFlagPrototyped, isOptimized: false)
!1073 = !DIImportedEntity(tag: DW_TAG_imported_declaration, scope: !8, entity: !1074, line: 520)
!1074 = !DISubprogram(name: "tanh", scope: !1020, file: !1020, line: 113, type: !1021, isLocal: false, isDefinition: false, flags: DIFlagPrototyped, isOptimized: false)
!1075 = !DIImportedEntity(tag: DW_TAG_imported_declaration, scope: !8, entity: !1076, line: 1077)
!1076 = !DIDerivedType(tag: DW_TAG_typedef, name: "double_t", file: !1020, line: 155, baseType: !419)
!1077 = !DIImportedEntity(tag: DW_TAG_imported_declaration, scope: !8, entity: !1078, line: 1078)
!1078 = !DIDerivedType(tag: DW_TAG_typedef, name: "float_t", file: !1020, line: 154, baseType: !425)
!1079 = !DIImportedEntity(tag: DW_TAG_imported_declaration, scope: !8, entity: !1080, line: 1081)
!1080 = !DISubprogram(name: "acosh", scope: !1020, file: !1020, line: 333, type: !1021, isLocal: false, isDefinition: false, flags: DIFlagPrototyped, isOptimized: false)
!1081 = !DIImportedEntity(tag: DW_TAG_imported_declaration, scope: !8, entity: !1082, line: 1082)
!1082 = !DISubprogram(name: "acoshf", scope: !1020, file: !1020, line: 413, type: !1083, isLocal: false, isDefinition: false, flags: DIFlagPrototyped, isOptimized: false)
!1083 = !DISubroutineType(types: !1084)
!1084 = !{!425, !425}
!1085 = !DIImportedEntity(tag: DW_TAG_imported_declaration, scope: !8, entity: !1086, line: 1083)
!1086 = !DISubprogram(name: "acoshl", scope: !1020, file: !1020, line: 492, type: !1087, isLocal: false, isDefinition: false, flags: DIFlagPrototyped, isOptimized: false)
!1087 = !DISubroutineType(types: !1088)
!1088 = !{!483, !483}
!1089 = !DIImportedEntity(tag: DW_TAG_imported_declaration, scope: !8, entity: !1090, line: 1085)
!1090 = !DISubprogram(name: "asinh", scope: !1020, file: !1020, line: 305, type: !1021, isLocal: false, isDefinition: false, flags: DIFlagPrototyped, isOptimized: false)
!1091 = !DIImportedEntity(tag: DW_TAG_imported_declaration, scope: !8, entity: !1092, line: 1086)
!1092 = !DISubprogram(name: "asinhf", scope: !1020, file: !1020, line: 404, type: !1083, isLocal: false, isDefinition: false, flags: DIFlagPrototyped, isOptimized: false)
!1093 = !DIImportedEntity(tag: DW_TAG_imported_declaration, scope: !8, entity: !1094, line: 1087)
!1094 = !DISubprogram(name: "asinhl", scope: !1020, file: !1020, line: 466, type: !1087, isLocal: false, isDefinition: false, flags: DIFlagPrototyped, isOptimized: false)
!1095 = !DIImportedEntity(tag: DW_TAG_imported_declaration, scope: !8, entity: !1096, line: 1089)
!1096 = !DISubprogram(name: "atanh", scope: !1020, file: !1020, line: 334, type: !1021, isLocal: false, isDefinition: false, flags: DIFlagPrototyped, isOptimized: false)
!1097 = !DIImportedEntity(tag: DW_TAG_imported_declaration, scope: !8, entity: !1098, line: 1090)
!1098 = !DISubprogram(name: "atanhf", scope: !1020, file: !1020, line: 414, type: !1083, isLocal: false, isDefinition: false, flags: DIFlagPrototyped, isOptimized: false)
!1099 = !DIImportedEntity(tag: DW_TAG_imported_declaration, scope: !8, entity: !1100, line: 1091)
!1100 = !DISubprogram(name: "atanhl", scope: !1020, file: !1020, line: 493, type: !1087, isLocal: false, isDefinition: false, flags: DIFlagPrototyped, isOptimized: false)
!1101 = !DIImportedEntity(tag: DW_TAG_imported_declaration, scope: !8, entity: !1102, line: 1093)
!1102 = !DISubprogram(name: "cbrt", scope: !1020, file: !1020, line: 306, type: !1021, isLocal: false, isDefinition: false, flags: DIFlagPrototyped, isOptimized: false)
!1103 = !DIImportedEntity(tag: DW_TAG_imported_declaration, scope: !8, entity: !1104, line: 1094)
!1104 = !DISubprogram(name: "cbrtf", scope: !1020, file: !1020, line: 405, type: !1083, isLocal: false, isDefinition: false, flags: DIFlagPrototyped, isOptimized: false)
!1105 = !DIImportedEntity(tag: DW_TAG_imported_declaration, scope: !8, entity: !1106, line: 1095)
!1106 = !DISubprogram(name: "cbrtl", scope: !1020, file: !1020, line: 467, type: !1087, isLocal: false, isDefinition: false, flags: DIFlagPrototyped, isOptimized: false)
!1107 = !DIImportedEntity(tag: DW_TAG_imported_declaration, scope: !8, entity: !1108, line: 1097)
!1108 = !DISubprogram(name: "copysign", scope: !1020, file: !1020, line: 301, type: !1029, isLocal: false, isDefinition: false, flags: DIFlagPrototyped, isOptimized: false)
!1109 = !DIImportedEntity(tag: DW_TAG_imported_declaration, scope: !8, entity: !1110, line: 1098)
!1110 = !DISubprogram(name: "copysignf", scope: !1020, file: !1020, line: 400, type: !1111, isLocal: false, isDefinition: false, flags: DIFlagPrototyped, isOptimized: false)
!1111 = !DISubroutineType(types: !1112)
!1112 = !{!425, !425, !425}
!1113 = !DIImportedEntity(tag: DW_TAG_imported_declaration, scope: !8, entity: !1114, line: 1099)
!1114 = !DISubprogram(name: "copysignl", scope: !1020, file: !1020, line: 463, type: !1115, isLocal: false, isDefinition: false, flags: DIFlagPrototyped, isOptimized: false)
!1115 = !DISubroutineType(types: !1116)
!1116 = !{!483, !483, !483}
!1117 = !DIImportedEntity(tag: DW_TAG_imported_declaration, scope: !8, entity: !1118, line: 1101)
!1118 = !DISubprogram(name: "erf", scope: !1020, file: !1020, line: 338, type: !1021, isLocal: false, isDefinition: false, flags: DIFlagPrototyped, isOptimized: false)
!1119 = !DIImportedEntity(tag: DW_TAG_imported_declaration, scope: !8, entity: !1120, line: 1102)
!1120 = !DISubprogram(name: "erff", scope: !1020, file: !1020, line: 418, type: !1083, isLocal: false, isDefinition: false, flags: DIFlagPrototyped, isOptimized: false)
!1121 = !DIImportedEntity(tag: DW_TAG_imported_declaration, scope: !8, entity: !1122, line: 1103)
!1122 = !DISubprogram(name: "erfl", scope: !1020, file: !1020, line: 496, type: !1087, isLocal: false, isDefinition: false, flags: DIFlagPrototyped, isOptimized: false)
!1123 = !DIImportedEntity(tag: DW_TAG_imported_declaration, scope: !8, entity: !1124, line: 1105)
!1124 = !DISubprogram(name: "erfc", scope: !1020, file: !1020, line: 339, type: !1021, isLocal: false, isDefinition: false, flags: DIFlagPrototyped, isOptimized: false)
!1125 = !DIImportedEntity(tag: DW_TAG_imported_declaration, scope: !8, entity: !1126, line: 1106)
!1126 = !DISubprogram(name: "erfcf", scope: !1020, file: !1020, line: 419, type: !1083, isLocal: false, isDefinition: false, flags: DIFlagPrototyped, isOptimized: false)
!1127 = !DIImportedEntity(tag: DW_TAG_imported_declaration, scope: !8, entity: !1128, line: 1107)
!1128 = !DISubprogram(name: "erfcl", scope: !1020, file: !1020, line: 497, type: !1087, isLocal: false, isDefinition: false, flags: DIFlagPrototyped, isOptimized: false)
!1129 = !DIImportedEntity(tag: DW_TAG_imported_declaration, scope: !8, entity: !1130, line: 1109)
!1130 = !DISubprogram(name: "exp2", scope: !1020, file: !1020, line: 311, type: !1021, isLocal: false, isDefinition: false, flags: DIFlagPrototyped, isOptimized: false)
!1131 = !DIImportedEntity(tag: DW_TAG_imported_declaration, scope: !8, entity: !1132, line: 1110)
!1132 = !DISubprogram(name: "exp2f", scope: !1020, file: !1020, line: 381, type: !1083, isLocal: false, isDefinition: false, flags: DIFlagPrototyped, isOptimized: false)
!1133 = !DIImportedEntity(tag: DW_TAG_imported_declaration, scope: !8, entity: !1134, line: 1111)
!1134 = !DISubprogram(name: "exp2l", scope: !1020, file: !1020, line: 476, type: !1087, isLocal: false, isDefinition: false, flags: DIFlagPrototyped, isOptimized: false)
!1135 = !DIImportedEntity(tag: DW_TAG_imported_declaration, scope: !8, entity: !1136, line: 1113)
!1136 = !DISubprogram(name: "expm1", scope: !1020, file: !1020, line: 329, type: !1021, isLocal: false, isDefinition: false, flags: DIFlagPrototyped, isOptimized: false)
!1137 = !DIImportedEntity(tag: DW_TAG_imported_declaration, scope: !8, entity: !1138, line: 1114)
!1138 = !DISubprogram(name: "expm1f", scope: !1020, file: !1020, line: 410, type: !1083, isLocal: false, isDefinition: false, flags: DIFlagPrototyped, isOptimized: false)
!1139 = !DIImportedEntity(tag: DW_TAG_imported_declaration, scope: !8, entity: !1140, line: 1115)
!1140 = !DISubprogram(name: "expm1l", scope: !1020, file: !1020, line: 443, type: !1087, isLocal: false, isDefinition: false, flags: DIFlagPrototyped, isOptimized: false)
!1141 = !DIImportedEntity(tag: DW_TAG_imported_declaration, scope: !8, entity: !1142, line: 1117)
!1142 = !DISubprogram(name: "fdim", scope: !1020, file: !1020, line: 322, type: !1029, isLocal: false, isDefinition: false, flags: DIFlagPrototyped, isOptimized: false)
!1143 = !DIImportedEntity(tag: DW_TAG_imported_declaration, scope: !8, entity: !1144, line: 1118)
!1144 = !DISubprogram(name: "fdimf", scope: !1020, file: !1020, line: 392, type: !1111, isLocal: false, isDefinition: false, flags: DIFlagPrototyped, isOptimized: false)
!1145 = !DIImportedEntity(tag: DW_TAG_imported_declaration, scope: !8, entity: !1146, line: 1119)
!1146 = !DISubprogram(name: "fdiml", scope: !1020, file: !1020, line: 487, type: !1115, isLocal: false, isDefinition: false, flags: DIFlagPrototyped, isOptimized: false)
!1147 = !DIImportedEntity(tag: DW_TAG_imported_declaration, scope: !8, entity: !1148, line: 1121)
!1148 = !DISubprogram(name: "fma", scope: !1020, file: !1020, line: 325, type: !1149, isLocal: false, isDefinition: false, flags: DIFlagPrototyped, isOptimized: false)
!1149 = !DISubroutineType(types: !1150)
!1150 = !{!419, !419, !419, !419}
!1151 = !DIImportedEntity(tag: DW_TAG_imported_declaration, scope: !8, entity: !1152, line: 1122)
!1152 = !DISubprogram(name: "fmaf", scope: !1020, file: !1020, line: 395, type: !1153, isLocal: false, isDefinition: false, flags: DIFlagPrototyped, isOptimized: false)
!1153 = !DISubroutineType(types: !1154)
!1154 = !{!425, !425, !425, !425}
!1155 = !DIImportedEntity(tag: DW_TAG_imported_declaration, scope: !8, entity: !1156, line: 1123)
!1156 = !DISubprogram(name: "fmal", scope: !1020, file: !1020, line: 490, type: !1157, isLocal: false, isDefinition: false, flags: DIFlagPrototyped, isOptimized: false)
!1157 = !DISubroutineType(types: !1158)
!1158 = !{!483, !483, !483, !483}
!1159 = !DIImportedEntity(tag: DW_TAG_imported_declaration, scope: !8, entity: !1160, line: 1125)
!1160 = !DISubprogram(name: "fmax", scope: !1020, file: !1020, line: 323, type: !1029, isLocal: false, isDefinition: false, flags: DIFlagPrototyped, isOptimized: false)
!1161 = !DIImportedEntity(tag: DW_TAG_imported_declaration, scope: !8, entity: !1162, line: 1126)
!1162 = !DISubprogram(name: "fmaxf", scope: !1020, file: !1020, line: 393, type: !1111, isLocal: false, isDefinition: false, flags: DIFlagPrototyped, isOptimized: false)
!1163 = !DIImportedEntity(tag: DW_TAG_imported_declaration, scope: !8, entity: !1164, line: 1127)
!1164 = !DISubprogram(name: "fmaxl", scope: !1020, file: !1020, line: 488, type: !1115, isLocal: false, isDefinition: false, flags: DIFlagPrototyped, isOptimized: false)
!1165 = !DIImportedEntity(tag: DW_TAG_imported_declaration, scope: !8, entity: !1166, line: 1129)
!1166 = !DISubprogram(name: "fmin", scope: !1020, file: !1020, line: 324, type: !1029, isLocal: false, isDefinition: false, flags: DIFlagPrototyped, isOptimized: false)
!1167 = !DIImportedEntity(tag: DW_TAG_imported_declaration, scope: !8, entity: !1168, line: 1130)
!1168 = !DISubprogram(name: "fminf", scope: !1020, file: !1020, line: 394, type: !1111, isLocal: false, isDefinition: false, flags: DIFlagPrototyped, isOptimized: false)
!1169 = !DIImportedEntity(tag: DW_TAG_imported_declaration, scope: !8, entity: !1170, line: 1131)
!1170 = !DISubprogram(name: "fminl", scope: !1020, file: !1020, line: 489, type: !1115, isLocal: false, isDefinition: false, flags: DIFlagPrototyped, isOptimized: false)
!1171 = !DIImportedEntity(tag: DW_TAG_imported_declaration, scope: !8, entity: !1172, line: 1133)
!1172 = !DISubprogram(name: "hypot", scope: !1020, file: !1020, line: 346, type: !1029, isLocal: false, isDefinition: false, flags: DIFlagPrototyped, isOptimized: false)
!1173 = !DIImportedEntity(tag: DW_TAG_imported_declaration, scope: !8, entity: !1174, line: 1134)
!1174 = !DISubprogram(name: "hypotf", scope: !1020, file: !1020, line: 421, type: !1111, isLocal: false, isDefinition: false, flags: DIFlagPrototyped, isOptimized: false)
!1175 = !DIImportedEntity(tag: DW_TAG_imported_declaration, scope: !8, entity: !1176, line: 1135)
!1176 = !DISubprogram(name: "hypotl", scope: !1020, file: !1020, line: 460, type: !1115, isLocal: false, isDefinition: false, flags: DIFlagPrototyped, isOptimized: false)
!1177 = !DIImportedEntity(tag: DW_TAG_imported_declaration, scope: !8, entity: !1178, line: 1137)
!1178 = !DISubprogram(name: "ilogb", scope: !1020, file: !1020, line: 303, type: !1179, isLocal: false, isDefinition: false, flags: DIFlagPrototyped, isOptimized: false)
!1179 = !DISubroutineType(types: !1180)
!1180 = !{!21, !419}
!1181 = !DIImportedEntity(tag: DW_TAG_imported_declaration, scope: !8, entity: !1182, line: 1138)
!1182 = !DISubprogram(name: "ilogbf", scope: !1020, file: !1020, line: 402, type: !1183, isLocal: false, isDefinition: false, flags: DIFlagPrototyped, isOptimized: false)
!1183 = !DISubroutineType(types: !1184)
!1184 = !{!21, !425}
!1185 = !DIImportedEntity(tag: DW_TAG_imported_declaration, scope: !8, entity: !1186, line: 1139)
!1186 = !DISubprogram(name: "ilogbl", scope: !1020, file: !1020, line: 465, type: !1187, isLocal: false, isDefinition: false, flags: DIFlagPrototyped, isOptimized: false)
!1187 = !DISubroutineType(types: !1188)
!1188 = !{!21, !483}
!1189 = !DIImportedEntity(tag: DW_TAG_imported_declaration, scope: !8, entity: !1190, line: 1141)
!1190 = !DISubprogram(name: "lgamma", scope: !1020, file: !1020, line: 337, type: !1021, isLocal: false, isDefinition: false, flags: DIFlagPrototyped, isOptimized: false)
!1191 = !DIImportedEntity(tag: DW_TAG_imported_declaration, scope: !8, entity: !1192, line: 1142)
!1192 = !DISubprogram(name: "lgammaf", scope: !1020, file: !1020, line: 417, type: !1083, isLocal: false, isDefinition: false, flags: DIFlagPrototyped, isOptimized: false)
!1193 = !DIImportedEntity(tag: DW_TAG_imported_declaration, scope: !8, entity: !1194, line: 1143)
!1194 = !DISubprogram(name: "lgammal", scope: !1020, file: !1020, line: 495, type: !1087, isLocal: false, isDefinition: false, flags: DIFlagPrototyped, isOptimized: false)
!1195 = !DIImportedEntity(tag: DW_TAG_imported_declaration, scope: !8, entity: !1196, line: 1145)
!1196 = !DISubprogram(name: "llrint", scope: !1020, file: !1020, line: 316, type: !1197, isLocal: false, isDefinition: false, flags: DIFlagPrototyped, isOptimized: false)
!1197 = !DISubroutineType(types: !1198)
!1198 = !{!488, !419}
!1199 = !DIImportedEntity(tag: DW_TAG_imported_declaration, scope: !8, entity: !1200, line: 1146)
!1200 = !DISubprogram(name: "llrintf", scope: !1020, file: !1020, line: 386, type: !1201, isLocal: false, isDefinition: false, flags: DIFlagPrototyped, isOptimized: false)
!1201 = !DISubroutineType(types: !1202)
!1202 = !{!488, !425}
!1203 = !DIImportedEntity(tag: DW_TAG_imported_declaration, scope: !8, entity: !1204, line: 1147)
!1204 = !DISubprogram(name: "llrintl", scope: !1020, file: !1020, line: 481, type: !1205, isLocal: false, isDefinition: false, flags: DIFlagPrototyped, isOptimized: false)
!1205 = !DISubroutineType(types: !1206)
!1206 = !{!488, !483}
!1207 = !DIImportedEntity(tag: DW_TAG_imported_declaration, scope: !8, entity: !1208, line: 1149)
!1208 = !DISubprogram(name: "llround", scope: !1020, file: !1020, line: 319, type: !1197, isLocal: false, isDefinition: false, flags: DIFlagPrototyped, isOptimized: false)
!1209 = !DIImportedEntity(tag: DW_TAG_imported_declaration, scope: !8, entity: !1210, line: 1150)
!1210 = !DISubprogram(name: "llroundf", scope: !1020, file: !1020, line: 389, type: !1201, isLocal: false, isDefinition: false, flags: DIFlagPrototyped, isOptimized: false)
!1211 = !DIImportedEntity(tag: DW_TAG_imported_declaration, scope: !8, entity: !1212, line: 1151)
!1212 = !DISubprogram(name: "llroundl", scope: !1020, file: !1020, line: 484, type: !1205, isLocal: false, isDefinition: false, flags: DIFlagPrototyped, isOptimized: false)
!1213 = !DIImportedEntity(tag: DW_TAG_imported_declaration, scope: !8, entity: !1214, line: 1153)
!1214 = !DISubprogram(name: "log1p", scope: !1020, file: !1020, line: 328, type: !1021, isLocal: false, isDefinition: false, flags: DIFlagPrototyped, isOptimized: false)
!1215 = !DIImportedEntity(tag: DW_TAG_imported_declaration, scope: !8, entity: !1216, line: 1154)
!1216 = !DISubprogram(name: "log1pf", scope: !1020, file: !1020, line: 409, type: !1083, isLocal: false, isDefinition: false, flags: DIFlagPrototyped, isOptimized: false)
!1217 = !DIImportedEntity(tag: DW_TAG_imported_declaration, scope: !8, entity: !1218, line: 1155)
!1218 = !DISubprogram(name: "log1pl", scope: !1020, file: !1020, line: 442, type: !1087, isLocal: false, isDefinition: false, flags: DIFlagPrototyped, isOptimized: false)
!1219 = !DIImportedEntity(tag: DW_TAG_imported_declaration, scope: !8, entity: !1220, line: 1157)
!1220 = !DISubprogram(name: "log2", scope: !1020, file: !1020, line: 340, type: !1021, isLocal: false, isDefinition: false, flags: DIFlagPrototyped, isOptimized: false)
!1221 = !DIImportedEntity(tag: DW_TAG_imported_declaration, scope: !8, entity: !1222, line: 1158)
!1222 = !DISubprogram(name: "log2f", scope: !1020, file: !1020, line: 420, type: !1083, isLocal: false, isDefinition: false, flags: DIFlagPrototyped, isOptimized: false)
!1223 = !DIImportedEntity(tag: DW_TAG_imported_declaration, scope: !8, entity: !1224, line: 1159)
!1224 = !DISubprogram(name: "log2l", scope: !1020, file: !1020, line: 473, type: !1087, isLocal: false, isDefinition: false, flags: DIFlagPrototyped, isOptimized: false)
!1225 = !DIImportedEntity(tag: DW_TAG_imported_declaration, scope: !8, entity: !1226, line: 1161)
!1226 = !DISubprogram(name: "logb", scope: !1020, file: !1020, line: 302, type: !1021, isLocal: false, isDefinition: false, flags: DIFlagPrototyped, isOptimized: false)
!1227 = !DIImportedEntity(tag: DW_TAG_imported_declaration, scope: !8, entity: !1228, line: 1162)
!1228 = !DISubprogram(name: "logbf", scope: !1020, file: !1020, line: 401, type: !1083, isLocal: false, isDefinition: false, flags: DIFlagPrototyped, isOptimized: false)
!1229 = !DIImportedEntity(tag: DW_TAG_imported_declaration, scope: !8, entity: !1230, line: 1163)
!1230 = !DISubprogram(name: "logbl", scope: !1020, file: !1020, line: 472, type: !1087, isLocal: false, isDefinition: false, flags: DIFlagPrototyped, isOptimized: false)
!1231 = !DIImportedEntity(tag: DW_TAG_imported_declaration, scope: !8, entity: !1232, line: 1165)
!1232 = !DISubprogram(name: "lrint", scope: !1020, file: !1020, line: 315, type: !1233, isLocal: false, isDefinition: false, flags: DIFlagPrototyped, isOptimized: false)
!1233 = !DISubroutineType(types: !1234)
!1234 = !{!233, !419}
!1235 = !DIImportedEntity(tag: DW_TAG_imported_declaration, scope: !8, entity: !1236, line: 1166)
!1236 = !DISubprogram(name: "lrintf", scope: !1020, file: !1020, line: 385, type: !1237, isLocal: false, isDefinition: false, flags: DIFlagPrototyped, isOptimized: false)
!1237 = !DISubroutineType(types: !1238)
!1238 = !{!233, !425}
!1239 = !DIImportedEntity(tag: DW_TAG_imported_declaration, scope: !8, entity: !1240, line: 1167)
!1240 = !DISubprogram(name: "lrintl", scope: !1020, file: !1020, line: 480, type: !1241, isLocal: false, isDefinition: false, flags: DIFlagPrototyped, isOptimized: false)
!1241 = !DISubroutineType(types: !1242)
!1242 = !{!233, !483}
!1243 = !DIImportedEntity(tag: DW_TAG_imported_declaration, scope: !8, entity: !1244, line: 1169)
!1244 = !DISubprogram(name: "lround", scope: !1020, file: !1020, line: 318, type: !1233, isLocal: false, isDefinition: false, flags: DIFlagPrototyped, isOptimized: false)
!1245 = !DIImportedEntity(tag: DW_TAG_imported_declaration, scope: !8, entity: !1246, line: 1170)
!1246 = !DISubprogram(name: "lroundf", scope: !1020, file: !1020, line: 388, type: !1237, isLocal: false, isDefinition: false, flags: DIFlagPrototyped, isOptimized: false)
!1247 = !DIImportedEntity(tag: DW_TAG_imported_declaration, scope: !8, entity: !1248, line: 1171)
!1248 = !DISubprogram(name: "lroundl", scope: !1020, file: !1020, line: 483, type: !1241, isLocal: false, isDefinition: false, flags: DIFlagPrototyped, isOptimized: false)
!1249 = !DIImportedEntity(tag: DW_TAG_imported_declaration, scope: !8, entity: !1250, line: 1173)
!1250 = !DISubprogram(name: "nan", scope: !1020, file: !1020, line: 299, type: !705, isLocal: false, isDefinition: false, flags: DIFlagPrototyped, isOptimized: false)
!1251 = !DIImportedEntity(tag: DW_TAG_imported_declaration, scope: !8, entity: !1252, line: 1174)
!1252 = !DISubprogram(name: "nanf", scope: !1020, file: !1020, line: 398, type: !1253, isLocal: false, isDefinition: false, flags: DIFlagPrototyped, isOptimized: false)
!1253 = !DISubroutineType(types: !1254)
!1254 = !{!425, !104}
!1255 = !DIImportedEntity(tag: DW_TAG_imported_declaration, scope: !8, entity: !1256, line: 1175)
!1256 = !DISubprogram(name: "nanl", scope: !1020, file: !1020, line: 464, type: !1257, isLocal: false, isDefinition: false, flags: DIFlagPrototyped, isOptimized: false)
!1257 = !DISubroutineType(types: !1258)
!1258 = !{!483, !104}
!1259 = !DIImportedEntity(tag: DW_TAG_imported_declaration, scope: !8, entity: !1260, line: 1177)
!1260 = !DISubprogram(name: "nearbyint", scope: !1020, file: !1020, line: 314, type: !1021, isLocal: false, isDefinition: false, flags: DIFlagPrototyped, isOptimized: false)
!1261 = !DIImportedEntity(tag: DW_TAG_imported_declaration, scope: !8, entity: !1262, line: 1178)
!1262 = !DISubprogram(name: "nearbyintf", scope: !1020, file: !1020, line: 384, type: !1083, isLocal: false, isDefinition: false, flags: DIFlagPrototyped, isOptimized: false)
!1263 = !DIImportedEntity(tag: DW_TAG_imported_declaration, scope: !8, entity: !1264, line: 1179)
!1264 = !DISubprogram(name: "nearbyintl", scope: !1020, file: !1020, line: 479, type: !1087, isLocal: false, isDefinition: false, flags: DIFlagPrototyped, isOptimized: false)
!1265 = !DIImportedEntity(tag: DW_TAG_imported_declaration, scope: !8, entity: !1266, line: 1181)
!1266 = !DISubprogram(name: "nextafter", scope: !1020, file: !1020, line: 307, type: !1029, isLocal: false, isDefinition: false, flags: DIFlagPrototyped, isOptimized: false)
!1267 = !DIImportedEntity(tag: DW_TAG_imported_declaration, scope: !8, entity: !1268, line: 1182)
!1268 = !DISubprogram(name: "nextafterf", scope: !1020, file: !1020, line: 406, type: !1111, isLocal: false, isDefinition: false, flags: DIFlagPrototyped, isOptimized: false)
!1269 = !DIImportedEntity(tag: DW_TAG_imported_declaration, scope: !8, entity: !1270, line: 1183)
!1270 = !DISubprogram(name: "nextafterl", scope: !1020, file: !1020, line: 468, type: !1115, isLocal: false, isDefinition: false, flags: DIFlagPrototyped, isOptimized: false)
!1271 = !DIImportedEntity(tag: DW_TAG_imported_declaration, scope: !8, entity: !1272, line: 1185)
!1272 = !DISubprogram(name: "nexttoward", scope: !1020, file: !1020, line: 470, type: !1273, isLocal: false, isDefinition: false, flags: DIFlagPrototyped, isOptimized: false)
!1273 = !DISubroutineType(types: !1274)
!1274 = !{!419, !419, !483}
!1275 = !DIImportedEntity(tag: DW_TAG_imported_declaration, scope: !8, entity: !1276, line: 1186)
!1276 = !DISubprogram(name: "nexttowardf", scope: !1020, file: !1020, line: 469, type: !1277, isLocal: false, isDefinition: false, flags: DIFlagPrototyped, isOptimized: false)
!1277 = !DISubroutineType(types: !1278)
!1278 = !{!425, !425, !483}
!1279 = !DIImportedEntity(tag: DW_TAG_imported_declaration, scope: !8, entity: !1280, line: 1187)
!1280 = !DISubprogram(name: "nexttowardl", scope: !1020, file: !1020, line: 471, type: !1115, isLocal: false, isDefinition: false, flags: DIFlagPrototyped, isOptimized: false)
!1281 = !DIImportedEntity(tag: DW_TAG_imported_declaration, scope: !8, entity: !1282, line: 1189)
!1282 = !DISubprogram(name: "remainder", scope: !1020, file: !1020, line: 335, type: !1029, isLocal: false, isDefinition: false, flags: DIFlagPrototyped, isOptimized: false)
!1283 = !DIImportedEntity(tag: DW_TAG_imported_declaration, scope: !8, entity: !1284, line: 1190)
!1284 = !DISubprogram(name: "remainderf", scope: !1020, file: !1020, line: 415, type: !1111, isLocal: false, isDefinition: false, flags: DIFlagPrototyped, isOptimized: false)
!1285 = !DIImportedEntity(tag: DW_TAG_imported_declaration, scope: !8, entity: !1286, line: 1191)
!1286 = !DISubprogram(name: "remainderl", scope: !1020, file: !1020, line: 494, type: !1115, isLocal: false, isDefinition: false, flags: DIFlagPrototyped, isOptimized: false)
!1287 = !DIImportedEntity(tag: DW_TAG_imported_declaration, scope: !8, entity: !1288, line: 1193)
!1288 = !DISubprogram(name: "remquo", scope: !1020, file: !1020, line: 321, type: !1289, isLocal: false, isDefinition: false, flags: DIFlagPrototyped, isOptimized: false)
!1289 = !DISubroutineType(types: !1290)
!1290 = !{!419, !419, !419, !1049}
!1291 = !DIImportedEntity(tag: DW_TAG_imported_declaration, scope: !8, entity: !1292, line: 1194)
!1292 = !DISubprogram(name: "remquof", scope: !1020, file: !1020, line: 391, type: !1293, isLocal: false, isDefinition: false, flags: DIFlagPrototyped, isOptimized: false)
!1293 = !DISubroutineType(types: !1294)
!1294 = !{!425, !425, !425, !1049}
!1295 = !DIImportedEntity(tag: DW_TAG_imported_declaration, scope: !8, entity: !1296, line: 1195)
!1296 = !DISubprogram(name: "remquol", scope: !1020, file: !1020, line: 486, type: !1297, isLocal: false, isDefinition: false, flags: DIFlagPrototyped, isOptimized: false)
!1297 = !DISubroutineType(types: !1298)
!1298 = !{!483, !483, !483, !1049}
!1299 = !DIImportedEntity(tag: DW_TAG_imported_declaration, scope: !8, entity: !1300, line: 1197)
!1300 = !DISubprogram(name: "rint", scope: !1020, file: !1020, line: 308, type: !1021, isLocal: false, isDefinition: false, flags: DIFlagPrototyped, isOptimized: false)
!1301 = !DIImportedEntity(tag: DW_TAG_imported_declaration, scope: !8, entity: !1302, line: 1198)
!1302 = !DISubprogram(name: "rintf", scope: !1020, file: !1020, line: 407, type: !1083, isLocal: false, isDefinition: false, flags: DIFlagPrototyped, isOptimized: false)
!1303 = !DIImportedEntity(tag: DW_TAG_imported_declaration, scope: !8, entity: !1304, line: 1199)
!1304 = !DISubprogram(name: "rintl", scope: !1020, file: !1020, line: 474, type: !1087, isLocal: false, isDefinition: false, flags: DIFlagPrototyped, isOptimized: false)
!1305 = !DIImportedEntity(tag: DW_TAG_imported_declaration, scope: !8, entity: !1306, line: 1201)
!1306 = !DISubprogram(name: "round", scope: !1020, file: !1020, line: 317, type: !1021, isLocal: false, isDefinition: false, flags: DIFlagPrototyped, isOptimized: false)
!1307 = !DIImportedEntity(tag: DW_TAG_imported_declaration, scope: !8, entity: !1308, line: 1202)
!1308 = !DISubprogram(name: "roundf", scope: !1020, file: !1020, line: 387, type: !1083, isLocal: false, isDefinition: false, flags: DIFlagPrototyped, isOptimized: false)
!1309 = !DIImportedEntity(tag: DW_TAG_imported_declaration, scope: !8, entity: !1310, line: 1203)
!1310 = !DISubprogram(name: "roundl", scope: !1020, file: !1020, line: 482, type: !1087, isLocal: false, isDefinition: false, flags: DIFlagPrototyped, isOptimized: false)
!1311 = !DIImportedEntity(tag: DW_TAG_imported_declaration, scope: !8, entity: !1312, line: 1205)
!1312 = !DISubprogram(name: "scalbln", scope: !1020, file: !1020, line: 312, type: !1313, isLocal: false, isDefinition: false, flags: DIFlagPrototyped, isOptimized: false)
!1313 = !DISubroutineType(types: !1314)
!1314 = !{!419, !419, !233}
!1315 = !DIImportedEntity(tag: DW_TAG_imported_declaration, scope: !8, entity: !1316, line: 1206)
!1316 = !DISubprogram(name: "scalblnf", scope: !1020, file: !1020, line: 382, type: !1317, isLocal: false, isDefinition: false, flags: DIFlagPrototyped, isOptimized: false)
!1317 = !DISubroutineType(types: !1318)
!1318 = !{!425, !425, !233}
!1319 = !DIImportedEntity(tag: DW_TAG_imported_declaration, scope: !8, entity: !1320, line: 1207)
!1320 = !DISubprogram(name: "scalblnl", scope: !1020, file: !1020, line: 477, type: !1321, isLocal: false, isDefinition: false, flags: DIFlagPrototyped, isOptimized: false)
!1321 = !DISubroutineType(types: !1322)
!1322 = !{!483, !483, !233}
!1323 = !DIImportedEntity(tag: DW_TAG_imported_declaration, scope: !8, entity: !1324, line: 1209)
!1324 = !DISubprogram(name: "scalbn", scope: !1020, file: !1020, line: 309, type: !1052, isLocal: false, isDefinition: false, flags: DIFlagPrototyped, isOptimized: false)
!1325 = !DIImportedEntity(tag: DW_TAG_imported_declaration, scope: !8, entity: !1326, line: 1210)
!1326 = !DISubprogram(name: "scalbnf", scope: !1020, file: !1020, line: 408, type: !1327, isLocal: false, isDefinition: false, flags: DIFlagPrototyped, isOptimized: false)
!1327 = !DISubroutineType(types: !1328)
!1328 = !{!425, !425, !21}
!1329 = !DIImportedEntity(tag: DW_TAG_imported_declaration, scope: !8, entity: !1330, line: 1211)
!1330 = !DISubprogram(name: "scalbnl", scope: !1020, file: !1020, line: 475, type: !1331, isLocal: false, isDefinition: false, flags: DIFlagPrototyped, isOptimized: false)
!1331 = !DISubroutineType(types: !1332)
!1332 = !{!483, !483, !21}
!1333 = !DIImportedEntity(tag: DW_TAG_imported_declaration, scope: !8, entity: !1334, line: 1213)
!1334 = !DISubprogram(name: "tgamma", scope: !1020, file: !1020, line: 313, type: !1021, isLocal: false, isDefinition: false, flags: DIFlagPrototyped, isOptimized: false)
!1335 = !DIImportedEntity(tag: DW_TAG_imported_declaration, scope: !8, entity: !1336, line: 1214)
!1336 = !DISubprogram(name: "tgammaf", scope: !1020, file: !1020, line: 383, type: !1083, isLocal: false, isDefinition: false, flags: DIFlagPrototyped, isOptimized: false)
!1337 = !DIImportedEntity(tag: DW_TAG_imported_declaration, scope: !8, entity: !1338, line: 1215)
!1338 = !DISubprogram(name: "tgammal", scope: !1020, file: !1020, line: 478, type: !1087, isLocal: false, isDefinition: false, flags: DIFlagPrototyped, isOptimized: false)
!1339 = !DIImportedEntity(tag: DW_TAG_imported_declaration, scope: !8, entity: !1340, line: 1217)
!1340 = !DISubprogram(name: "trunc", scope: !1020, file: !1020, line: 320, type: !1021, isLocal: false, isDefinition: false, flags: DIFlagPrototyped, isOptimized: false)
!1341 = !DIImportedEntity(tag: DW_TAG_imported_declaration, scope: !8, entity: !1342, line: 1218)
!1342 = !DISubprogram(name: "truncf", scope: !1020, file: !1020, line: 390, type: !1083, isLocal: false, isDefinition: false, flags: DIFlagPrototyped, isOptimized: false)
!1343 = !DIImportedEntity(tag: DW_TAG_imported_declaration, scope: !8, entity: !1344, line: 1219)
!1344 = !DISubprogram(name: "truncl", scope: !1020, file: !1020, line: 485, type: !1087, isLocal: false, isDefinition: false, flags: DIFlagPrototyped, isOptimized: false)
!1345 = !DIImportedEntity(tag: DW_TAG_imported_declaration, scope: !0, entity: !1346, line: 54)
!1346 = !DISubprogram(name: "modf", linkageName: "_ZSt4modfePe", scope: !8, file: !1347, line: 403, type: !1348, isLocal: false, isDefinition: false, flags: DIFlagPrototyped, isOptimized: false)
!1347 = !DIFile(filename: "/mnt/icgridio2/safe/SDSoC/SDx/2017.1/SDK/gnu/aarch32/lin/gcc-arm-none-eabi/arm-none-eabi/include/c++/6.2.1/cmath", directory: "/scratch/local/tmp.yK7okjyWNi")
!1348 = !DISubroutineType(types: !1349)
!1349 = !{!483, !483, !1350}
!1350 = !DIDerivedType(tag: DW_TAG_pointer_type, baseType: !483, size: 32, align: 32)
!1351 = !DIImportedEntity(tag: DW_TAG_imported_declaration, scope: !8, entity: !1352, line: 82)
!1352 = !DIDerivedType(tag: DW_TAG_typedef, name: "wctrans_t", file: !1353, line: 23, baseType: !21)
!1353 = !DIFile(filename: "/mnt/icgridio2/safe/SDSoC/SDx/2017.1/SDK/gnu/aarch32/lin/gcc-arm-none-eabi/arm-none-eabi/libc/usr/include/wctype.h", directory: "/scratch/local/tmp.yK7okjyWNi")
!1354 = !DIImportedEntity(tag: DW_TAG_imported_declaration, scope: !8, entity: !1355, line: 83)
!1355 = !DIDerivedType(tag: DW_TAG_typedef, name: "wctype_t", file: !1353, line: 18, baseType: !21)
!1356 = !DIImportedEntity(tag: DW_TAG_imported_declaration, scope: !8, entity: !50, line: 84)
!1357 = !DIImportedEntity(tag: DW_TAG_imported_declaration, scope: !8, entity: !1358, line: 86)
!1358 = !DISubprogram(name: "iswalnum", scope: !1353, file: !1353, line: 27, type: !444, isLocal: false, isDefinition: false, flags: DIFlagPrototyped, isOptimized: false)
!1359 = !DIImportedEntity(tag: DW_TAG_imported_declaration, scope: !8, entity: !1360, line: 87)
!1360 = !DISubprogram(name: "iswalpha", scope: !1353, file: !1353, line: 26, type: !444, isLocal: false, isDefinition: false, flags: DIFlagPrototyped, isOptimized: false)
!1361 = !DIImportedEntity(tag: DW_TAG_imported_declaration, scope: !8, entity: !1362, line: 89)
!1362 = !DISubprogram(name: "iswblank", scope: !1353, file: !1353, line: 28, type: !444, isLocal: false, isDefinition: false, flags: DIFlagPrototyped, isOptimized: false)
!1363 = !DIImportedEntity(tag: DW_TAG_imported_declaration, scope: !8, entity: !1364, line: 91)
!1364 = !DISubprogram(name: "iswcntrl", scope: !1353, file: !1353, line: 29, type: !444, isLocal: false, isDefinition: false, flags: DIFlagPrototyped, isOptimized: false)
!1365 = !DIImportedEntity(tag: DW_TAG_imported_declaration, scope: !8, entity: !1366, line: 92)
!1366 = !DISubprogram(name: "iswctype", scope: !1353, file: !1353, line: 30, type: !1367, isLocal: false, isDefinition: false, flags: DIFlagPrototyped, isOptimized: false)
!1367 = !DISubroutineType(types: !1368)
!1368 = !{!21, !50, !1355}
!1369 = !DIImportedEntity(tag: DW_TAG_imported_declaration, scope: !8, entity: !1370, line: 93)
!1370 = !DISubprogram(name: "iswdigit", scope: !1353, file: !1353, line: 31, type: !444, isLocal: false, isDefinition: false, flags: DIFlagPrototyped, isOptimized: false)
!1371 = !DIImportedEntity(tag: DW_TAG_imported_declaration, scope: !8, entity: !1372, line: 94)
!1372 = !DISubprogram(name: "iswgraph", scope: !1353, file: !1353, line: 32, type: !444, isLocal: false, isDefinition: false, flags: DIFlagPrototyped, isOptimized: false)
!1373 = !DIImportedEntity(tag: DW_TAG_imported_declaration, scope: !8, entity: !1374, line: 95)
!1374 = !DISubprogram(name: "iswlower", scope: !1353, file: !1353, line: 33, type: !444, isLocal: false, isDefinition: false, flags: DIFlagPrototyped, isOptimized: false)
!1375 = !DIImportedEntity(tag: DW_TAG_imported_declaration, scope: !8, entity: !1376, line: 96)
!1376 = !DISubprogram(name: "iswprint", scope: !1353, file: !1353, line: 34, type: !444, isLocal: false, isDefinition: false, flags: DIFlagPrototyped, isOptimized: false)
!1377 = !DIImportedEntity(tag: DW_TAG_imported_declaration, scope: !8, entity: !1378, line: 97)
!1378 = !DISubprogram(name: "iswpunct", scope: !1353, file: !1353, line: 35, type: !444, isLocal: false, isDefinition: false, flags: DIFlagPrototyped, isOptimized: false)
!1379 = !DIImportedEntity(tag: DW_TAG_imported_declaration, scope: !8, entity: !1380, line: 98)
!1380 = !DISubprogram(name: "iswspace", scope: !1353, file: !1353, line: 36, type: !444, isLocal: false, isDefinition: false, flags: DIFlagPrototyped, isOptimized: false)
!1381 = !DIImportedEntity(tag: DW_TAG_imported_declaration, scope: !8, entity: !1382, line: 99)
!1382 = !DISubprogram(name: "iswupper", scope: !1353, file: !1353, line: 37, type: !444, isLocal: false, isDefinition: false, flags: DIFlagPrototyped, isOptimized: false)
!1383 = !DIImportedEntity(tag: DW_TAG_imported_declaration, scope: !8, entity: !1384, line: 100)
!1384 = !DISubprogram(name: "iswxdigit", scope: !1353, file: !1353, line: 38, type: !444, isLocal: false, isDefinition: false, flags: DIFlagPrototyped, isOptimized: false)
!1385 = !DIImportedEntity(tag: DW_TAG_imported_declaration, scope: !8, entity: !1386, line: 101)
!1386 = !DISubprogram(name: "towctrans", scope: !1353, file: !1353, line: 39, type: !1387, isLocal: false, isDefinition: false, flags: DIFlagPrototyped, isOptimized: false)
!1387 = !DISubroutineType(types: !1388)
!1388 = !{!50, !50, !1352}
!1389 = !DIImportedEntity(tag: DW_TAG_imported_declaration, scope: !8, entity: !1390, line: 102)
!1390 = !DISubprogram(name: "towlower", scope: !1353, file: !1353, line: 41, type: !1391, isLocal: false, isDefinition: false, flags: DIFlagPrototyped, isOptimized: false)
!1391 = !DISubroutineType(types: !1392)
!1392 = !{!50, !50}
!1393 = !DIImportedEntity(tag: DW_TAG_imported_declaration, scope: !8, entity: !1394, line: 103)
!1394 = !DISubprogram(name: "towupper", scope: !1353, file: !1353, line: 40, type: !1391, isLocal: false, isDefinition: false, flags: DIFlagPrototyped, isOptimized: false)
!1395 = !DIImportedEntity(tag: DW_TAG_imported_declaration, scope: !8, entity: !1396, line: 104)
!1396 = !DISubprogram(name: "wctrans", scope: !1353, file: !1353, line: 42, type: !1397, isLocal: false, isDefinition: false, flags: DIFlagPrototyped, isOptimized: false)
!1397 = !DISubroutineType(types: !1398)
!1398 = !{!1352, !104}
!1399 = !DIImportedEntity(tag: DW_TAG_imported_declaration, scope: !8, entity: !1400, line: 105)
!1400 = !DISubprogram(name: "wctype", scope: !1353, file: !1353, line: 43, type: !1401, isLocal: false, isDefinition: false, flags: DIFlagPrototyped, isOptimized: false)
!1401 = !DISubroutineType(types: !1402)
!1402 = !{!1355, !104}
!1403 = !DIImportedEntity(tag: DW_TAG_imported_declaration, scope: !8, entity: !1404, line: 75)
!1404 = !DISubprogram(name: "memchr", scope: !1405, file: !1405, line: 21, type: !1406, isLocal: false, isDefinition: false, flags: DIFlagPrototyped, isOptimized: false)
!1405 = !DIFile(filename: "/mnt/icgridio2/safe/SDSoC/SDx/2017.1/SDK/gnu/aarch32/lin/gcc-arm-none-eabi/arm-none-eabi/libc/usr/include/string.h", directory: "/scratch/local/tmp.yK7okjyWNi")
!1406 = !DISubroutineType(types: !1407)
!1407 = !{!84, !719, !21, !294}
!1408 = !DIImportedEntity(tag: DW_TAG_imported_declaration, scope: !8, entity: !1409, line: 76)
!1409 = !DISubprogram(name: "memcmp", scope: !1405, file: !1405, line: 22, type: !1410, isLocal: false, isDefinition: false, flags: DIFlagPrototyped, isOptimized: false)
!1410 = !DISubroutineType(types: !1411)
!1411 = !{!21, !719, !719, !294}
!1412 = !DIImportedEntity(tag: DW_TAG_imported_declaration, scope: !8, entity: !1413, line: 77)
!1413 = !DISubprogram(name: "memcpy", scope: !1405, file: !1405, line: 23, type: !1414, isLocal: false, isDefinition: false, flags: DIFlagPrototyped, isOptimized: false)
!1414 = !DISubroutineType(types: !1415)
!1415 = !{!84, !84, !719, !294}
!1416 = !DIImportedEntity(tag: DW_TAG_imported_declaration, scope: !8, entity: !1417, line: 78)
!1417 = !DISubprogram(name: "memmove", scope: !1405, file: !1405, line: 24, type: !1414, isLocal: false, isDefinition: false, flags: DIFlagPrototyped, isOptimized: false)
!1418 = !DIImportedEntity(tag: DW_TAG_imported_declaration, scope: !8, entity: !1419, line: 79)
!1419 = !DISubprogram(name: "memset", scope: !1405, file: !1405, line: 25, type: !1420, isLocal: false, isDefinition: false, flags: DIFlagPrototyped, isOptimized: false)
!1420 = !DISubroutineType(types: !1421)
!1421 = !{!84, !84, !21, !294}
!1422 = !DIImportedEntity(tag: DW_TAG_imported_declaration, scope: !8, entity: !1423, line: 80)
!1423 = !DISubprogram(name: "strcat", scope: !1405, file: !1405, line: 26, type: !1424, isLocal: false, isDefinition: false, flags: DIFlagPrototyped, isOptimized: false)
!1424 = !DISubroutineType(types: !1425)
!1425 = !{!120, !120, !104}
!1426 = !DIImportedEntity(tag: DW_TAG_imported_declaration, scope: !8, entity: !1427, line: 81)
!1427 = !DISubprogram(name: "strcmp", scope: !1405, file: !1405, line: 28, type: !955, isLocal: false, isDefinition: false, flags: DIFlagPrototyped, isOptimized: false)
!1428 = !DIImportedEntity(tag: DW_TAG_imported_declaration, scope: !8, entity: !1429, line: 82)
!1429 = !DISubprogram(name: "strcoll", scope: !1405, file: !1405, line: 29, type: !955, isLocal: false, isDefinition: false, flags: DIFlagPrototyped, isOptimized: false)
!1430 = !DIImportedEntity(tag: DW_TAG_imported_declaration, scope: !8, entity: !1431, line: 83)
!1431 = !DISubprogram(name: "strcpy", scope: !1405, file: !1405, line: 30, type: !1424, isLocal: false, isDefinition: false, flags: DIFlagPrototyped, isOptimized: false)
!1432 = !DIImportedEntity(tag: DW_TAG_imported_declaration, scope: !8, entity: !1433, line: 84)
!1433 = !DISubprogram(name: "strcspn", scope: !1405, file: !1405, line: 31, type: !1434, isLocal: false, isDefinition: false, flags: DIFlagPrototyped, isOptimized: false)
!1434 = !DISubroutineType(types: !1435)
!1435 = !{!294, !104, !104}
!1436 = !DIImportedEntity(tag: DW_TAG_imported_declaration, scope: !8, entity: !1437, line: 85)
!1437 = !DISubprogram(name: "strerror", scope: !1405, file: !1405, line: 32, type: !1438, isLocal: false, isDefinition: false, flags: DIFlagPrototyped, isOptimized: false)
!1438 = !DISubroutineType(types: !1439)
!1439 = !{!120, !21}
!1440 = !DIImportedEntity(tag: DW_TAG_imported_declaration, scope: !8, entity: !1441, line: 86)
!1441 = !DISubprogram(name: "strlen", scope: !1405, file: !1405, line: 33, type: !1442, isLocal: false, isDefinition: false, flags: DIFlagPrototyped, isOptimized: false)
!1442 = !DISubroutineType(types: !1443)
!1443 = !{!294, !104}
!1444 = !DIImportedEntity(tag: DW_TAG_imported_declaration, scope: !8, entity: !1445, line: 87)
!1445 = !DISubprogram(name: "strncat", scope: !1405, file: !1405, line: 34, type: !1446, isLocal: false, isDefinition: false, flags: DIFlagPrototyped, isOptimized: false)
!1446 = !DISubroutineType(types: !1447)
!1447 = !{!120, !120, !104, !294}
!1448 = !DIImportedEntity(tag: DW_TAG_imported_declaration, scope: !8, entity: !1449, line: 88)
!1449 = !DISubprogram(name: "strncmp", scope: !1405, file: !1405, line: 35, type: !1450, isLocal: false, isDefinition: false, flags: DIFlagPrototyped, isOptimized: false)
!1450 = !DISubroutineType(types: !1451)
!1451 = !{!21, !104, !104, !294}
!1452 = !DIImportedEntity(tag: DW_TAG_imported_declaration, scope: !8, entity: !1453, line: 89)
!1453 = !DISubprogram(name: "strncpy", scope: !1405, file: !1405, line: 36, type: !1446, isLocal: false, isDefinition: false, flags: DIFlagPrototyped, isOptimized: false)
!1454 = !DIImportedEntity(tag: DW_TAG_imported_declaration, scope: !8, entity: !1455, line: 90)
!1455 = !DISubprogram(name: "strspn", scope: !1405, file: !1405, line: 39, type: !1434, isLocal: false, isDefinition: false, flags: DIFlagPrototyped, isOptimized: false)
!1456 = !DIImportedEntity(tag: DW_TAG_imported_declaration, scope: !8, entity: !1457, line: 91)
!1457 = !DISubprogram(name: "strtok", scope: !1405, file: !1405, line: 42, type: !1424, isLocal: false, isDefinition: false, flags: DIFlagPrototyped, isOptimized: false)
!1458 = !DIImportedEntity(tag: DW_TAG_imported_declaration, scope: !8, entity: !1459, line: 92)
!1459 = !DISubprogram(name: "strxfrm", scope: !1405, file: !1405, line: 44, type: !1460, isLocal: false, isDefinition: false, flags: DIFlagPrototyped, isOptimized: false)
!1460 = !DISubroutineType(types: !1461)
!1461 = !{!294, !120, !104, !294}
!1462 = !DIImportedEntity(tag: DW_TAG_imported_declaration, scope: !8, entity: !1463, line: 93)
!1463 = !DISubprogram(name: "strchr", scope: !1405, file: !1405, line: 27, type: !1464, isLocal: false, isDefinition: false, flags: DIFlagPrototyped, isOptimized: false)
!1464 = !DISubroutineType(types: !1465)
!1465 = !{!120, !104, !21}
!1466 = !DIImportedEntity(tag: DW_TAG_imported_declaration, scope: !8, entity: !1467, line: 94)
!1467 = !DISubprogram(name: "strpbrk", scope: !1405, file: !1405, line: 37, type: !1468, isLocal: false, isDefinition: false, flags: DIFlagPrototyped, isOptimized: false)
!1468 = !DISubroutineType(types: !1469)
!1469 = !{!120, !104, !104}
!1470 = !DIImportedEntity(tag: DW_TAG_imported_declaration, scope: !8, entity: !1471, line: 95)
!1471 = !DISubprogram(name: "strrchr", scope: !1405, file: !1405, line: 38, type: !1464, isLocal: false, isDefinition: false, flags: DIFlagPrototyped, isOptimized: false)
!1472 = !DIImportedEntity(tag: DW_TAG_imported_declaration, scope: !8, entity: !1473, line: 96)
!1473 = !DISubprogram(name: "strstr", scope: !1405, file: !1405, line: 40, type: !1468, isLocal: false, isDefinition: false, flags: DIFlagPrototyped, isOptimized: false)
!1474 = !DIImportedEntity(tag: DW_TAG_imported_declaration, scope: !1475, entity: !1477, line: 314)
!1475 = !DINamespace(name: "detail", scope: null, file: !1476, line: 306)
!1476 = !DIFile(filename: "/mnt/icgridio2/safe/SDSoC/SDx/2017.1/Vivado_HLS/include/hls_half.h", directory: "/scratch/local/tmp.yK7okjyWNi")
!1477 = !DIDerivedType(tag: DW_TAG_typedef, name: "true_type", scope: !8, file: !1478, line: 87, baseType: !1479)
!1478 = !DIFile(filename: "/mnt/icgridio2/safe/SDSoC/SDx/2017.1/SDK/gnu/aarch32/lin/gcc-arm-none-eabi/arm-none-eabi/include/c++/6.2.1/type_traits", directory: "/scratch/local/tmp.yK7okjyWNi")
!1479 = distinct !DICompositeType(tag: DW_TAG_structure_type, name: "integral_constant<bool, true>", scope: !8, file: !1478, line: 69, size: 8, align: 8, elements: !1480, templateParams: !1489, identifier: "_ZTSSt17integral_constantIbLb1EE")
!1480 = !{!1481, !1483}
!1481 = !DIDerivedType(tag: DW_TAG_member, name: "value", scope: !1479, file: !1478, line: 71, baseType: !1482, flags: DIFlagStaticMember, extraData: i1 true)
!1482 = !DIDerivedType(tag: DW_TAG_const_type, baseType: !23)
!1483 = !DISubprogram(name: "operator bool", linkageName: "_ZNKSt17integral_constantIbLb1EEcvbEv", scope: !1479, file: !1478, line: 74, type: !1484, isLocal: false, isDefinition: false, scopeLine: 74, flags: DIFlagPrototyped, isOptimized: false)
!1484 = !DISubroutineType(types: !1485)
!1485 = !{!1486, !1487}
!1486 = !DIDerivedType(tag: DW_TAG_typedef, name: "value_type", scope: !1479, file: !1478, line: 72, baseType: !23)
!1487 = !DIDerivedType(tag: DW_TAG_pointer_type, baseType: !1488, size: 32, align: 32, flags: DIFlagArtificial | DIFlagObjectPointer)
!1488 = !DIDerivedType(tag: DW_TAG_const_type, baseType: !1479)
!1489 = !{!1490, !1491}
!1490 = !DITemplateTypeParameter(name: "_Tp", type: !23)
!1491 = !DITemplateValueParameter(name: "__v", type: !23, value: i8 1)
!1492 = !DIImportedEntity(tag: DW_TAG_imported_declaration, scope: !1475, entity: !1493, line: 315)
!1493 = !DIDerivedType(tag: DW_TAG_typedef, name: "false_type", scope: !8, file: !1478, line: 90, baseType: !1494)
!1494 = distinct !DICompositeType(tag: DW_TAG_structure_type, name: "integral_constant<bool, false>", scope: !8, file: !1478, line: 69, size: 8, align: 8, elements: !1495, templateParams: !1503, identifier: "_ZTSSt17integral_constantIbLb0EE")
!1495 = !{!1496, !1497}
!1496 = !DIDerivedType(tag: DW_TAG_member, name: "value", scope: !1494, file: !1478, line: 71, baseType: !1482, flags: DIFlagStaticMember, extraData: i1 false)
!1497 = !DISubprogram(name: "operator bool", linkageName: "_ZNKSt17integral_constantIbLb0EEcvbEv", scope: !1494, file: !1478, line: 74, type: !1498, isLocal: false, isDefinition: false, scopeLine: 74, flags: DIFlagPrototyped, isOptimized: false)
!1498 = !DISubroutineType(types: !1499)
!1499 = !{!1500, !1501}
!1500 = !DIDerivedType(tag: DW_TAG_typedef, name: "value_type", scope: !1494, file: !1478, line: 72, baseType: !23)
!1501 = !DIDerivedType(tag: DW_TAG_pointer_type, baseType: !1502, size: 32, align: 32, flags: DIFlagArtificial | DIFlagObjectPointer)
!1502 = !DIDerivedType(tag: DW_TAG_const_type, baseType: !1494)
!1503 = !{!1490, !1504}
!1504 = !DITemplateValueParameter(name: "__v", type: !23, value: i8 0)
!1505 = !DIImportedEntity(tag: DW_TAG_imported_declaration, scope: !0, entity: !1506, line: 3135)
!1506 = !DISubprogram(name: "fpclassify", linkageName: "_ZN6detail10fpclassifyENS_4exprE", scope: !1475, file: !1476, line: 2911, type: !1507, isLocal: false, isDefinition: false, flags: DIFlagPrototyped, isOptimized: false)
!1507 = !DISubroutineType(types: !1508)
!1508 = !{!21, !1509}
!1509 = distinct !DICompositeType(tag: DW_TAG_structure_type, name: "expr", scope: !1475, file: !1476, line: 367, size: 32, align: 32, elements: !1510, identifier: "_ZTSN6detail4exprE")
!1510 = !{!1511, !1512, !1516}
!1511 = !DIDerivedType(tag: DW_TAG_member, name: "value_", scope: !1509, file: !1476, line: 379, baseType: !425, size: 32, align: 32, flags: DIFlagPrivate)
!1512 = !DISubprogram(name: "expr", scope: !1509, file: !1476, line: 371, type: !1513, isLocal: false, isDefinition: false, scopeLine: 371, flags: DIFlagExplicit | DIFlagPrototyped, isOptimized: false)
!1513 = !DISubroutineType(types: !1514)
!1514 = !{null, !1515, !425}
!1515 = !DIDerivedType(tag: DW_TAG_pointer_type, baseType: !1509, size: 32, align: 32, flags: DIFlagArtificial | DIFlagObjectPointer)
!1516 = !DISubprogram(name: "operator float", linkageName: "_ZNK6detail4exprcvfEv", scope: !1509, file: !1476, line: 375, type: !1517, isLocal: false, isDefinition: false, scopeLine: 375, flags: DIFlagPrototyped, isOptimized: false)
!1517 = !DISubroutineType(types: !1518)
!1518 = !{!425, !1519}
!1519 = !DIDerivedType(tag: DW_TAG_pointer_type, baseType: !1520, size: 32, align: 32, flags: DIFlagArtificial | DIFlagObjectPointer)
!1520 = !DIDerivedType(tag: DW_TAG_const_type, baseType: !1509)
!1521 = !DIImportedEntity(tag: DW_TAG_imported_declaration, scope: !0, entity: !1522, line: 3136)
!1522 = !DISubprogram(name: "isfinite", linkageName: "_ZN6detail8isfiniteENS_4exprE", scope: !1475, file: !1476, line: 2919, type: !1523, isLocal: false, isDefinition: false, flags: DIFlagPrototyped, isOptimized: false)
!1523 = !DISubroutineType(types: !1524)
!1524 = !{!23, !1509}
!1525 = !DIImportedEntity(tag: DW_TAG_imported_declaration, scope: !0, entity: !1526, line: 3137)
!1526 = !DISubprogram(name: "isinf", linkageName: "_ZN6detail5isinfENS_4exprE", scope: !1475, file: !1476, line: 2927, type: !1523, isLocal: false, isDefinition: false, flags: DIFlagPrototyped, isOptimized: false)
!1527 = !DIImportedEntity(tag: DW_TAG_imported_declaration, scope: !0, entity: !1528, line: 3138)
!1528 = !DISubprogram(name: "isnan", linkageName: "_ZN6detail5isnanENS_4exprE", scope: !1475, file: !1476, line: 2935, type: !1523, isLocal: false, isDefinition: false, flags: DIFlagPrototyped, isOptimized: false)
!1529 = !DIImportedEntity(tag: DW_TAG_imported_declaration, scope: !0, entity: !1530, line: 3139)
!1530 = !DISubprogram(name: "isnormal", linkageName: "_ZN6detail8isnormalENS_4exprE", scope: !1475, file: !1476, line: 2943, type: !1523, isLocal: false, isDefinition: false, flags: DIFlagPrototyped, isOptimized: false)
!1531 = !DIImportedEntity(tag: DW_TAG_imported_declaration, scope: !0, entity: !1532, line: 3140)
!1532 = !DISubprogram(name: "signbit", linkageName: "_ZN6detail7signbitENS_4exprE", scope: !1475, file: !1476, line: 2951, type: !1523, isLocal: false, isDefinition: false, flags: DIFlagPrototyped, isOptimized: false)
!1533 = !DIImportedEntity(tag: DW_TAG_imported_declaration, scope: !0, entity: !1534, line: 3141)
!1534 = !DISubprogram(name: "isgreater", linkageName: "_ZN6detail9isgreaterENS_4exprES0_", scope: !1475, file: !1476, line: 2966, type: !1535, isLocal: false, isDefinition: false, flags: DIFlagPrototyped, isOptimized: false)
!1535 = !DISubroutineType(types: !1536)
!1536 = !{!23, !1509, !1509}
!1537 = !DIImportedEntity(tag: DW_TAG_imported_declaration, scope: !0, entity: !1538, line: 3142)
!1538 = !DISubprogram(name: "isgreaterequal", linkageName: "_ZN6detail14isgreaterequalENS_4exprES0_", scope: !1475, file: !1476, line: 2977, type: !1535, isLocal: false, isDefinition: false, flags: DIFlagPrototyped, isOptimized: false)
!1539 = !DIImportedEntity(tag: DW_TAG_imported_declaration, scope: !0, entity: !1540, line: 3143)
!1540 = !DISubprogram(name: "isless", linkageName: "_ZN6detail6islessENS_4exprES0_", scope: !1475, file: !1476, line: 2988, type: !1535, isLocal: false, isDefinition: false, flags: DIFlagPrototyped, isOptimized: false)
!1541 = !DIImportedEntity(tag: DW_TAG_imported_declaration, scope: !0, entity: !1542, line: 3144)
!1542 = !DISubprogram(name: "islessequal", linkageName: "_ZN6detail11islessequalENS_4exprES0_", scope: !1475, file: !1476, line: 2999, type: !1535, isLocal: false, isDefinition: false, flags: DIFlagPrototyped, isOptimized: false)
!1543 = !DIImportedEntity(tag: DW_TAG_imported_declaration, scope: !0, entity: !1544, line: 3145)
!1544 = !DISubprogram(name: "islessgreater", linkageName: "_ZN6detail13islessgreaterENS_4exprES0_", scope: !1475, file: !1476, line: 3010, type: !1535, isLocal: false, isDefinition: false, flags: DIFlagPrototyped, isOptimized: false)
!1545 = !DIImportedEntity(tag: DW_TAG_imported_declaration, scope: !0, entity: !1546, line: 3146)
!1546 = !DISubprogram(name: "isunordered", linkageName: "_ZN6detail11isunorderedENS_4exprES0_", scope: !1475, file: !1476, line: 3021, type: !1535, isLocal: false, isDefinition: false, flags: DIFlagPrototyped, isOptimized: false)
!1547 = !DIImportedEntity(tag: DW_TAG_imported_declaration, scope: !8, entity: !1548, line: 60)
!1548 = !DIDerivedType(tag: DW_TAG_typedef, name: "clock_t", file: !1549, line: 120, baseType: !207)
!1549 = !DIFile(filename: "/mnt/icgridio2/safe/SDSoC/SDx/2017.1/SDK/gnu/aarch32/lin/gcc-arm-none-eabi/arm-none-eabi/libc/usr/include/sys/types.h", directory: "/scratch/local/tmp.yK7okjyWNi")
!1550 = !DIImportedEntity(tag: DW_TAG_imported_declaration, scope: !8, entity: !1551, line: 61)
!1551 = !DIDerivedType(tag: DW_TAG_typedef, name: "time_t", file: !1549, line: 125, baseType: !233)
!1552 = !DIImportedEntity(tag: DW_TAG_imported_declaration, scope: !8, entity: !382, line: 62)
!1553 = !DIImportedEntity(tag: DW_TAG_imported_declaration, scope: !8, entity: !1554, line: 64)
!1554 = !DISubprogram(name: "clock", scope: !383, file: !383, line: 52, type: !1555, isLocal: false, isDefinition: false, flags: DIFlagPrototyped, isOptimized: false)
!1555 = !DISubroutineType(types: !1556)
!1556 = !{!1548}
!1557 = !DIImportedEntity(tag: DW_TAG_imported_declaration, scope: !8, entity: !1558, line: 65)
!1558 = !DISubprogram(name: "difftime", scope: !383, file: !383, line: 53, type: !1559, isLocal: false, isDefinition: false, flags: DIFlagPrototyped, isOptimized: false)
!1559 = !DISubroutineType(types: !1560)
!1560 = !{!419, !1551, !1551}
!1561 = !DIImportedEntity(tag: DW_TAG_imported_declaration, scope: !8, entity: !1562, line: 66)
!1562 = !DISubprogram(name: "mktime", scope: !383, file: !383, line: 54, type: !1563, isLocal: false, isDefinition: false, flags: DIFlagPrototyped, isOptimized: false)
!1563 = !DISubroutineType(types: !1564)
!1564 = !{!1551, !1565}
!1565 = !DIDerivedType(tag: DW_TAG_pointer_type, baseType: !382, size: 32, align: 32)
!1566 = !DIImportedEntity(tag: DW_TAG_imported_declaration, scope: !8, entity: !1567, line: 67)
!1567 = !DISubprogram(name: "time", scope: !383, file: !383, line: 55, type: !1568, isLocal: false, isDefinition: false, flags: DIFlagPrototyped, isOptimized: false)
!1568 = !DISubroutineType(types: !1569)
!1569 = !{!1551, !1570}
!1570 = !DIDerivedType(tag: DW_TAG_pointer_type, baseType: !1551, size: 32, align: 32)
!1571 = !DIImportedEntity(tag: DW_TAG_imported_declaration, scope: !8, entity: !1572, line: 68)
!1572 = !DISubprogram(name: "asctime", scope: !383, file: !383, line: 57, type: !1573, isLocal: false, isDefinition: false, flags: DIFlagPrototyped, isOptimized: false)
!1573 = !DISubroutineType(types: !1574)
!1574 = !{!120, !380}
!1575 = !DIImportedEntity(tag: DW_TAG_imported_declaration, scope: !8, entity: !1576, line: 69)
!1576 = !DISubprogram(name: "ctime", scope: !383, file: !383, line: 58, type: !1577, isLocal: false, isDefinition: false, flags: DIFlagPrototyped, isOptimized: false)
!1577 = !DISubroutineType(types: !1578)
!1578 = !{!120, !1579}
!1579 = !DIDerivedType(tag: DW_TAG_pointer_type, baseType: !1580, size: 32, align: 32)
!1580 = !DIDerivedType(tag: DW_TAG_const_type, baseType: !1551)
!1581 = !DIImportedEntity(tag: DW_TAG_imported_declaration, scope: !8, entity: !1582, line: 70)
!1582 = !DISubprogram(name: "gmtime", scope: !383, file: !383, line: 59, type: !1583, isLocal: false, isDefinition: false, flags: DIFlagPrototyped, isOptimized: false)
!1583 = !DISubroutineType(types: !1584)
!1584 = !{!1565, !1579}
!1585 = !DIImportedEntity(tag: DW_TAG_imported_declaration, scope: !8, entity: !1586, line: 71)
!1586 = !DISubprogram(name: "localtime", scope: !383, file: !383, line: 60, type: !1583, isLocal: false, isDefinition: false, flags: DIFlagPrototyped, isOptimized: false)
!1587 = !DIImportedEntity(tag: DW_TAG_imported_declaration, scope: !8, entity: !1588, line: 72)
!1588 = !DISubprogram(name: "strftime", scope: !383, file: !383, line: 62, type: !1589, isLocal: false, isDefinition: false, flags: DIFlagPrototyped, isOptimized: false)
!1589 = !DISubroutineType(types: !1590)
!1590 = !{!294, !120, !294, !104, !380}
!1591 = !{i32 2, !"Dwarf Version", i32 4}
!1592 = !{i32 2, !"Debug Info Version", i32 3}
!1593 = !{i32 1, !"wchar_size", i32 4}
!1594 = !{i32 1, !"min_enum_size", i32 4}
!1595 = !{!"clang version 3.9.0 (tags/RELEASE_390/final)"}
!1596 = distinct !DISubprogram(name: "__cxx_global_var_init", scope: !13, file: !13, line: 74, type: !195, isLocal: true, isDefinition: true, scopeLine: 74, flags: DIFlagPrototyped, isOptimized: false, unit: !0, variables: !2)
!1597 = !DILocation(line: 74, column: 25, scope: !1596)
!1598 = !DILocation(line: 74, column: 25, scope: !1599)
!1599 = !DILexicalBlockFile(scope: !1596, file: !13, discriminator: 1)
!1600 = !{!"Init"}
!1601 = !{!"void."}
!1602 = !{!"/mnt/icgridio2/safe/SDSoC/SDx/2017.1/SDK/gnu/aarch32/lin/gcc-arm-none-eabi/arm-none-eabi/include/c++/6.2.1/bits/ios_base.h"}
!1603 = !{!"~Init"}
!1604 = distinct !DISubprogram(name: "get_root_dir", linkageName: "_Z12get_root_dirB5cxx11v", scope: !1, file: !1, line: 4, type: !1605, isLocal: false, isDefinition: true, scopeLine: 4, flags: DIFlagPrototyped, isOptimized: false, unit: !0, variables: !2)
!1605 = !DISubroutineType(types: !3)
!1606 = !{!"get_root_dir"}
!1607 = !{!"std::string."}
!1608 = !{!"/mnt/icgridio2/safe/giesen/HLS_tuner/1/TestApps/Rosetta/BNN/Sources/utils/Common.h"}
!1609 = !DILocalVariable(name: "root", scope: !1604, file: !1, line: 5, type: !120)
!1610 = !DIExpression()
!1611 = !DILocation(line: 5, column: 9, scope: !1604)
!1612 = !DILocation(line: 5, column: 16, scope: !1604)
!1613 = !DILocation(line: 6, column: 8, scope: !1614)
!1614 = distinct !DILexicalBlock(scope: !1604, file: !1, line: 6, column: 7)
!1615 = !DILocation(line: 6, column: 7, scope: !1604)
!1616 = !DILocation(line: 7, column: 13, scope: !1617)
!1617 = distinct !DILexicalBlock(scope: !1614, file: !1, line: 6, column: 14)
!1618 = !DILocation(line: 7, column: 5, scope: !1617)
!1619 = !DILocation(line: 8, column: 5, scope: !1617)
!1620 = !DILocation(line: 10, column: 22, scope: !1604)
!1621 = !DILocation(line: 10, column: 10, scope: !1604)
!1622 = !DILocation(line: 10, column: 3, scope: !1623)
!1623 = !DILexicalBlockFile(scope: !1604, file: !1, discriminator: 1)
!1624 = !DILocation(line: 11, column: 1, scope: !1604)
!1625 = !DILocation(line: 10, column: 3, scope: !1626)
!1626 = !DILexicalBlockFile(scope: !1604, file: !1, discriminator: 2)
!1627 = !DILocation(line: 10, column: 3, scope: !1628)
!1628 = !DILexicalBlockFile(scope: !1604, file: !1, discriminator: 3)
!1629 = !{!"getenv"}
!1630 = !{!"char .const char *.1"}
!1631 = !{!"/mnt/icgridio2/safe/SDSoC/SDx/2017.1/SDK/gnu/aarch32/lin/gcc-arm-none-eabi/arm-none-eabi/libc/usr/include/stdlib.h"}
!1632 = !{!"t"}
!1633 = !{!"fprintf"}
!1634 = !{!"int.FILE *.1.const char *.1"}
!1635 = !{!"/mnt/icgridio2/safe/SDSoC/SDx/2017.1/SDK/gnu/aarch32/lin/gcc-arm-none-eabi/arm-none-eabi/libc/usr/include/stdio.h"}
!1636 = !{!"exit"}
!1637 = !{!"void.int.0"}
!1638 = !{!"allocator"}
!1639 = !{!"/mnt/icgridio2/safe/SDSoC/SDx/2017.1/SDK/gnu/aarch32/lin/gcc-arm-none-eabi/arm-none-eabi/include/c++/6.2.1/bits/allocator.h"}
!1640 = !{!"basic_string"}
!1641 = !{!"void.const char *.1.const class std::allocator<char> &.0"}
!1642 = !{!"/mnt/icgridio2/safe/SDSoC/SDx/2017.1/SDK/gnu/aarch32/lin/gcc-arm-none-eabi/arm-none-eabi/include/c++/6.2.1/bits/basic_string.h"}
!1643 = !{!"~allocator"}
!1644 = distinct !DISubprogram(linkageName: "_GLOBAL__sub_I_Common.cpp", scope: !1, file: !1, type: !1645, isLocal: true, isDefinition: true, flags: DIFlagArtificial, isOptimized: false, unit: !0, variables: !2)
!1645 = !DISubroutineType(types: !2)
!1646 = !DILocation(line: 0, scope: !1644)
